
VibrationAnalysis446.elf:     file format elf32-littlearm

Sections:
Idx Name          Size      VMA       LMA       File off  Algn
  0 .isr_vector   000001c4  08000000  08000000  00010000  2**0
                  CONTENTS, ALLOC, LOAD, READONLY, DATA
  1 .text         00003240  080001d0  080001d0  000101d0  2**4
                  CONTENTS, ALLOC, LOAD, READONLY, CODE
  2 .rodata       00000070  08003410  08003410  00013410  2**0
                  CONTENTS, ALLOC, LOAD, READONLY, DATA
  3 .ARM.extab    00000000  08003480  08003480  00020074  2**0
                  CONTENTS
  4 .ARM          00000008  08003480  08003480  00013480  2**2
                  CONTENTS, ALLOC, LOAD, READONLY, DATA
  5 .preinit_array 00000000  08003488  08003488  00020074  2**0
                  CONTENTS, ALLOC, LOAD, DATA
  6 .init_array   00000004  08003488  08003488  00013488  2**2
                  CONTENTS, ALLOC, LOAD, DATA
  7 .fini_array   00000004  0800348c  0800348c  0001348c  2**2
                  CONTENTS, ALLOC, LOAD, DATA
  8 .data         00000074  20000000  08003490  00020000  2**2
                  CONTENTS, ALLOC, LOAD, DATA
  9 .bss          00005fcc  20000074  08003504  00020074  2**2
                  ALLOC
 10 ._user_heap_stack 00000600  20006040  08003504  00026040  2**0
                  ALLOC
 11 .ARM.attributes 00000030  00000000  00000000  00020074  2**0
                  CONTENTS, READONLY
 12 .comment      0000007b  00000000  00000000  000200a4  2**0
                  CONTENTS, READONLY
 13 .debug_frame  00000410  00000000  00000000  00020120  2**2
                  CONTENTS, READONLY, DEBUGGING

Disassembly of section .text:

080001d0 <__do_global_dtors_aux>:
 80001d0:	b510      	push	{r4, lr}
 80001d2:	4c05      	ldr	r4, [pc, #20]	; (80001e8 <__do_global_dtors_aux+0x18>)
 80001d4:	7823      	ldrb	r3, [r4, #0]
 80001d6:	b933      	cbnz	r3, 80001e6 <__do_global_dtors_aux+0x16>
 80001d8:	4b04      	ldr	r3, [pc, #16]	; (80001ec <__do_global_dtors_aux+0x1c>)
 80001da:	b113      	cbz	r3, 80001e2 <__do_global_dtors_aux+0x12>
 80001dc:	4804      	ldr	r0, [pc, #16]	; (80001f0 <__do_global_dtors_aux+0x20>)
 80001de:	f3af 8000 	nop.w
 80001e2:	2301      	movs	r3, #1
 80001e4:	7023      	strb	r3, [r4, #0]
 80001e6:	bd10      	pop	{r4, pc}
 80001e8:	20000074 	.word	0x20000074
 80001ec:	00000000 	.word	0x00000000
 80001f0:	080033f8 	.word	0x080033f8

080001f4 <frame_dummy>:
 80001f4:	b508      	push	{r3, lr}
 80001f6:	4b03      	ldr	r3, [pc, #12]	; (8000204 <frame_dummy+0x10>)
 80001f8:	b11b      	cbz	r3, 8000202 <frame_dummy+0xe>
 80001fa:	4903      	ldr	r1, [pc, #12]	; (8000208 <frame_dummy+0x14>)
 80001fc:	4803      	ldr	r0, [pc, #12]	; (800020c <frame_dummy+0x18>)
 80001fe:	f3af 8000 	nop.w
 8000202:	bd08      	pop	{r3, pc}
 8000204:	00000000 	.word	0x00000000
 8000208:	20000078 	.word	0x20000078
 800020c:	080033f8 	.word	0x080033f8

08000210 <memchr>:
 8000210:	f001 01ff 	and.w	r1, r1, #255	; 0xff
 8000214:	2a10      	cmp	r2, #16
 8000216:	db2b      	blt.n	8000270 <memchr+0x60>
 8000218:	f010 0f07 	tst.w	r0, #7
 800021c:	d008      	beq.n	8000230 <memchr+0x20>
 800021e:	f810 3b01 	ldrb.w	r3, [r0], #1
 8000222:	3a01      	subs	r2, #1
 8000224:	428b      	cmp	r3, r1
 8000226:	d02d      	beq.n	8000284 <memchr+0x74>
 8000228:	f010 0f07 	tst.w	r0, #7
 800022c:	b342      	cbz	r2, 8000280 <memchr+0x70>
 800022e:	d1f6      	bne.n	800021e <memchr+0xe>
 8000230:	b4f0      	push	{r4, r5, r6, r7}
 8000232:	ea41 2101 	orr.w	r1, r1, r1, lsl #8
 8000236:	ea41 4101 	orr.w	r1, r1, r1, lsl #16
 800023a:	f022 0407 	bic.w	r4, r2, #7
 800023e:	f07f 0700 	mvns.w	r7, #0
 8000242:	2300      	movs	r3, #0
 8000244:	e8f0 5602 	ldrd	r5, r6, [r0], #8
 8000248:	3c08      	subs	r4, #8
 800024a:	ea85 0501 	eor.w	r5, r5, r1
 800024e:	ea86 0601 	eor.w	r6, r6, r1
 8000252:	fa85 f547 	uadd8	r5, r5, r7
 8000256:	faa3 f587 	sel	r5, r3, r7
 800025a:	fa86 f647 	uadd8	r6, r6, r7
 800025e:	faa5 f687 	sel	r6, r5, r7
 8000262:	b98e      	cbnz	r6, 8000288 <memchr+0x78>
 8000264:	d1ee      	bne.n	8000244 <memchr+0x34>
 8000266:	bcf0      	pop	{r4, r5, r6, r7}
 8000268:	f001 01ff 	and.w	r1, r1, #255	; 0xff
 800026c:	f002 0207 	and.w	r2, r2, #7
 8000270:	b132      	cbz	r2, 8000280 <memchr+0x70>
 8000272:	f810 3b01 	ldrb.w	r3, [r0], #1
 8000276:	3a01      	subs	r2, #1
 8000278:	ea83 0301 	eor.w	r3, r3, r1
 800027c:	b113      	cbz	r3, 8000284 <memchr+0x74>
 800027e:	d1f8      	bne.n	8000272 <memchr+0x62>
 8000280:	2000      	movs	r0, #0
 8000282:	4770      	bx	lr
 8000284:	3801      	subs	r0, #1
 8000286:	4770      	bx	lr
 8000288:	2d00      	cmp	r5, #0
 800028a:	bf06      	itte	eq
 800028c:	4635      	moveq	r5, r6
 800028e:	3803      	subeq	r0, #3
 8000290:	3807      	subne	r0, #7
 8000292:	f015 0f01 	tst.w	r5, #1
 8000296:	d107      	bne.n	80002a8 <memchr+0x98>
 8000298:	3001      	adds	r0, #1
 800029a:	f415 7f80 	tst.w	r5, #256	; 0x100
 800029e:	bf02      	ittt	eq
 80002a0:	3001      	addeq	r0, #1
 80002a2:	f415 3fc0 	tsteq.w	r5, #98304	; 0x18000
 80002a6:	3001      	addeq	r0, #1
 80002a8:	bcf0      	pop	{r4, r5, r6, r7}
 80002aa:	3801      	subs	r0, #1
 80002ac:	4770      	bx	lr
 80002ae:	bf00      	nop

080002b0 <__aeabi_uldivmod>:
 80002b0:	b953      	cbnz	r3, 80002c8 <__aeabi_uldivmod+0x18>
 80002b2:	b94a      	cbnz	r2, 80002c8 <__aeabi_uldivmod+0x18>
 80002b4:	2900      	cmp	r1, #0
 80002b6:	bf08      	it	eq
 80002b8:	2800      	cmpeq	r0, #0
 80002ba:	bf1c      	itt	ne
 80002bc:	f04f 31ff 	movne.w	r1, #4294967295
 80002c0:	f04f 30ff 	movne.w	r0, #4294967295
 80002c4:	f000 b972 	b.w	80005ac <__aeabi_idiv0>
 80002c8:	f1ad 0c08 	sub.w	ip, sp, #8
 80002cc:	e96d ce04 	strd	ip, lr, [sp, #-16]!
 80002d0:	f000 f806 	bl	80002e0 <__udivmoddi4>
 80002d4:	f8dd e004 	ldr.w	lr, [sp, #4]
 80002d8:	e9dd 2302 	ldrd	r2, r3, [sp, #8]
 80002dc:	b004      	add	sp, #16
 80002de:	4770      	bx	lr

080002e0 <__udivmoddi4>:
 80002e0:	e92d 47f0 	stmdb	sp!, {r4, r5, r6, r7, r8, r9, sl, lr}
 80002e4:	9e08      	ldr	r6, [sp, #32]
 80002e6:	4604      	mov	r4, r0
 80002e8:	4688      	mov	r8, r1
 80002ea:	2b00      	cmp	r3, #0
 80002ec:	d14b      	bne.n	8000386 <__udivmoddi4+0xa6>
 80002ee:	428a      	cmp	r2, r1
 80002f0:	4615      	mov	r5, r2
 80002f2:	d967      	bls.n	80003c4 <__udivmoddi4+0xe4>
 80002f4:	fab2 f282 	clz	r2, r2
 80002f8:	b14a      	cbz	r2, 800030e <__udivmoddi4+0x2e>
 80002fa:	f1c2 0720 	rsb	r7, r2, #32
 80002fe:	fa01 f302 	lsl.w	r3, r1, r2
 8000302:	fa20 f707 	lsr.w	r7, r0, r7
 8000306:	4095      	lsls	r5, r2
 8000308:	ea47 0803 	orr.w	r8, r7, r3
 800030c:	4094      	lsls	r4, r2
 800030e:	ea4f 4e15 	mov.w	lr, r5, lsr #16
 8000312:	0c23      	lsrs	r3, r4, #16
 8000314:	fbb8 f7fe 	udiv	r7, r8, lr
 8000318:	fa1f fc85 	uxth.w	ip, r5
 800031c:	fb0e 8817 	mls	r8, lr, r7, r8
 8000320:	ea43 4308 	orr.w	r3, r3, r8, lsl #16
 8000324:	fb07 f10c 	mul.w	r1, r7, ip
 8000328:	4299      	cmp	r1, r3
 800032a:	d909      	bls.n	8000340 <__udivmoddi4+0x60>
 800032c:	18eb      	adds	r3, r5, r3
 800032e:	f107 30ff 	add.w	r0, r7, #4294967295
 8000332:	f080 811b 	bcs.w	800056c <__udivmoddi4+0x28c>
 8000336:	4299      	cmp	r1, r3
 8000338:	f240 8118 	bls.w	800056c <__udivmoddi4+0x28c>
 800033c:	3f02      	subs	r7, #2
 800033e:	442b      	add	r3, r5
 8000340:	1a5b      	subs	r3, r3, r1
 8000342:	b2a4      	uxth	r4, r4
 8000344:	fbb3 f0fe 	udiv	r0, r3, lr
 8000348:	fb0e 3310 	mls	r3, lr, r0, r3
 800034c:	ea44 4403 	orr.w	r4, r4, r3, lsl #16
 8000350:	fb00 fc0c 	mul.w	ip, r0, ip
 8000354:	45a4      	cmp	ip, r4
 8000356:	d909      	bls.n	800036c <__udivmoddi4+0x8c>
 8000358:	192c      	adds	r4, r5, r4
 800035a:	f100 33ff 	add.w	r3, r0, #4294967295
 800035e:	f080 8107 	bcs.w	8000570 <__udivmoddi4+0x290>
 8000362:	45a4      	cmp	ip, r4
 8000364:	f240 8104 	bls.w	8000570 <__udivmoddi4+0x290>
 8000368:	3802      	subs	r0, #2
 800036a:	442c      	add	r4, r5
 800036c:	ea40 4007 	orr.w	r0, r0, r7, lsl #16
 8000370:	eba4 040c 	sub.w	r4, r4, ip
 8000374:	2700      	movs	r7, #0
 8000376:	b11e      	cbz	r6, 8000380 <__udivmoddi4+0xa0>
 8000378:	40d4      	lsrs	r4, r2
 800037a:	2300      	movs	r3, #0
 800037c:	e9c6 4300 	strd	r4, r3, [r6]
 8000380:	4639      	mov	r1, r7
 8000382:	e8bd 87f0 	ldmia.w	sp!, {r4, r5, r6, r7, r8, r9, sl, pc}
 8000386:	428b      	cmp	r3, r1
 8000388:	d909      	bls.n	800039e <__udivmoddi4+0xbe>
 800038a:	2e00      	cmp	r6, #0
 800038c:	f000 80eb 	beq.w	8000566 <__udivmoddi4+0x286>
 8000390:	2700      	movs	r7, #0
 8000392:	e9c6 0100 	strd	r0, r1, [r6]
 8000396:	4638      	mov	r0, r7
 8000398:	4639      	mov	r1, r7
 800039a:	e8bd 87f0 	ldmia.w	sp!, {r4, r5, r6, r7, r8, r9, sl, pc}
 800039e:	fab3 f783 	clz	r7, r3
 80003a2:	2f00      	cmp	r7, #0
 80003a4:	d147      	bne.n	8000436 <__udivmoddi4+0x156>
 80003a6:	428b      	cmp	r3, r1
 80003a8:	d302      	bcc.n	80003b0 <__udivmoddi4+0xd0>
 80003aa:	4282      	cmp	r2, r0
 80003ac:	f200 80fa 	bhi.w	80005a4 <__udivmoddi4+0x2c4>
 80003b0:	1a84      	subs	r4, r0, r2
 80003b2:	eb61 0303 	sbc.w	r3, r1, r3
 80003b6:	2001      	movs	r0, #1
 80003b8:	4698      	mov	r8, r3
 80003ba:	2e00      	cmp	r6, #0
 80003bc:	d0e0      	beq.n	8000380 <__udivmoddi4+0xa0>
 80003be:	e9c6 4800 	strd	r4, r8, [r6]
 80003c2:	e7dd      	b.n	8000380 <__udivmoddi4+0xa0>
 80003c4:	b902      	cbnz	r2, 80003c8 <__udivmoddi4+0xe8>
 80003c6:	deff      	udf	#255	; 0xff
 80003c8:	fab2 f282 	clz	r2, r2
 80003cc:	2a00      	cmp	r2, #0
 80003ce:	f040 808f 	bne.w	80004f0 <__udivmoddi4+0x210>
 80003d2:	1b49      	subs	r1, r1, r5
 80003d4:	ea4f 4e15 	mov.w	lr, r5, lsr #16
 80003d8:	fa1f f885 	uxth.w	r8, r5
 80003dc:	2701      	movs	r7, #1
 80003de:	fbb1 fcfe 	udiv	ip, r1, lr
 80003e2:	0c23      	lsrs	r3, r4, #16
 80003e4:	fb0e 111c 	mls	r1, lr, ip, r1
 80003e8:	ea43 4301 	orr.w	r3, r3, r1, lsl #16
 80003ec:	fb08 f10c 	mul.w	r1, r8, ip
 80003f0:	4299      	cmp	r1, r3
 80003f2:	d907      	bls.n	8000404 <__udivmoddi4+0x124>
 80003f4:	18eb      	adds	r3, r5, r3
 80003f6:	f10c 30ff 	add.w	r0, ip, #4294967295
 80003fa:	d202      	bcs.n	8000402 <__udivmoddi4+0x122>
 80003fc:	4299      	cmp	r1, r3
 80003fe:	f200 80cd 	bhi.w	800059c <__udivmoddi4+0x2bc>
 8000402:	4684      	mov	ip, r0
 8000404:	1a59      	subs	r1, r3, r1
 8000406:	b2a3      	uxth	r3, r4
 8000408:	fbb1 f0fe 	udiv	r0, r1, lr
 800040c:	fb0e 1410 	mls	r4, lr, r0, r1
 8000410:	ea43 4404 	orr.w	r4, r3, r4, lsl #16
 8000414:	fb08 f800 	mul.w	r8, r8, r0
 8000418:	45a0      	cmp	r8, r4
 800041a:	d907      	bls.n	800042c <__udivmoddi4+0x14c>
 800041c:	192c      	adds	r4, r5, r4
 800041e:	f100 33ff 	add.w	r3, r0, #4294967295
 8000422:	d202      	bcs.n	800042a <__udivmoddi4+0x14a>
 8000424:	45a0      	cmp	r8, r4
 8000426:	f200 80b6 	bhi.w	8000596 <__udivmoddi4+0x2b6>
 800042a:	4618      	mov	r0, r3
 800042c:	eba4 0408 	sub.w	r4, r4, r8
 8000430:	ea40 400c 	orr.w	r0, r0, ip, lsl #16
 8000434:	e79f      	b.n	8000376 <__udivmoddi4+0x96>
 8000436:	f1c7 0c20 	rsb	ip, r7, #32
 800043a:	40bb      	lsls	r3, r7
 800043c:	fa22 fe0c 	lsr.w	lr, r2, ip
 8000440:	ea4e 0e03 	orr.w	lr, lr, r3
 8000444:	fa01 f407 	lsl.w	r4, r1, r7
 8000448:	fa20 f50c 	lsr.w	r5, r0, ip
 800044c:	fa21 f30c 	lsr.w	r3, r1, ip
 8000450:	ea4f 481e 	mov.w	r8, lr, lsr #16
 8000454:	4325      	orrs	r5, r4
 8000456:	fbb3 f9f8 	udiv	r9, r3, r8
 800045a:	0c2c      	lsrs	r4, r5, #16
 800045c:	fb08 3319 	mls	r3, r8, r9, r3
 8000460:	fa1f fa8e 	uxth.w	sl, lr
 8000464:	ea44 4303 	orr.w	r3, r4, r3, lsl #16
 8000468:	fb09 f40a 	mul.w	r4, r9, sl
 800046c:	429c      	cmp	r4, r3
 800046e:	fa02 f207 	lsl.w	r2, r2, r7
 8000472:	fa00 f107 	lsl.w	r1, r0, r7
 8000476:	d90b      	bls.n	8000490 <__udivmoddi4+0x1b0>
 8000478:	eb1e 0303 	adds.w	r3, lr, r3
 800047c:	f109 30ff 	add.w	r0, r9, #4294967295
 8000480:	f080 8087 	bcs.w	8000592 <__udivmoddi4+0x2b2>
 8000484:	429c      	cmp	r4, r3
 8000486:	f240 8084 	bls.w	8000592 <__udivmoddi4+0x2b2>
 800048a:	f1a9 0902 	sub.w	r9, r9, #2
 800048e:	4473      	add	r3, lr
 8000490:	1b1b      	subs	r3, r3, r4
 8000492:	b2ad      	uxth	r5, r5
 8000494:	fbb3 f0f8 	udiv	r0, r3, r8
 8000498:	fb08 3310 	mls	r3, r8, r0, r3
 800049c:	ea45 4403 	orr.w	r4, r5, r3, lsl #16
 80004a0:	fb00 fa0a 	mul.w	sl, r0, sl
 80004a4:	45a2      	cmp	sl, r4
 80004a6:	d908      	bls.n	80004ba <__udivmoddi4+0x1da>
 80004a8:	eb1e 0404 	adds.w	r4, lr, r4
 80004ac:	f100 33ff 	add.w	r3, r0, #4294967295
 80004b0:	d26b      	bcs.n	800058a <__udivmoddi4+0x2aa>
 80004b2:	45a2      	cmp	sl, r4
 80004b4:	d969      	bls.n	800058a <__udivmoddi4+0x2aa>
 80004b6:	3802      	subs	r0, #2
 80004b8:	4474      	add	r4, lr
 80004ba:	ea40 4009 	orr.w	r0, r0, r9, lsl #16
 80004be:	fba0 8902 	umull	r8, r9, r0, r2
 80004c2:	eba4 040a 	sub.w	r4, r4, sl
 80004c6:	454c      	cmp	r4, r9
 80004c8:	46c2      	mov	sl, r8
 80004ca:	464b      	mov	r3, r9
 80004cc:	d354      	bcc.n	8000578 <__udivmoddi4+0x298>
 80004ce:	d051      	beq.n	8000574 <__udivmoddi4+0x294>
 80004d0:	2e00      	cmp	r6, #0
 80004d2:	d069      	beq.n	80005a8 <__udivmoddi4+0x2c8>
 80004d4:	ebb1 050a 	subs.w	r5, r1, sl
 80004d8:	eb64 0403 	sbc.w	r4, r4, r3
 80004dc:	fa04 fc0c 	lsl.w	ip, r4, ip
 80004e0:	40fd      	lsrs	r5, r7
 80004e2:	40fc      	lsrs	r4, r7
 80004e4:	ea4c 0505 	orr.w	r5, ip, r5
 80004e8:	e9c6 5400 	strd	r5, r4, [r6]
 80004ec:	2700      	movs	r7, #0
 80004ee:	e747      	b.n	8000380 <__udivmoddi4+0xa0>
 80004f0:	f1c2 0320 	rsb	r3, r2, #32
 80004f4:	fa20 f703 	lsr.w	r7, r0, r3
 80004f8:	4095      	lsls	r5, r2
 80004fa:	fa01 f002 	lsl.w	r0, r1, r2
 80004fe:	fa21 f303 	lsr.w	r3, r1, r3
 8000502:	ea4f 4e15 	mov.w	lr, r5, lsr #16
 8000506:	4338      	orrs	r0, r7
 8000508:	0c01      	lsrs	r1, r0, #16
 800050a:	fbb3 f7fe 	udiv	r7, r3, lr
 800050e:	fa1f f885 	uxth.w	r8, r5
 8000512:	fb0e 3317 	mls	r3, lr, r7, r3
 8000516:	ea41 4103 	orr.w	r1, r1, r3, lsl #16
 800051a:	fb07 f308 	mul.w	r3, r7, r8
 800051e:	428b      	cmp	r3, r1
 8000520:	fa04 f402 	lsl.w	r4, r4, r2
 8000524:	d907      	bls.n	8000536 <__udivmoddi4+0x256>
 8000526:	1869      	adds	r1, r5, r1
 8000528:	f107 3cff 	add.w	ip, r7, #4294967295
 800052c:	d22f      	bcs.n	800058e <__udivmoddi4+0x2ae>
 800052e:	428b      	cmp	r3, r1
 8000530:	d92d      	bls.n	800058e <__udivmoddi4+0x2ae>
 8000532:	3f02      	subs	r7, #2
 8000534:	4429      	add	r1, r5
 8000536:	1acb      	subs	r3, r1, r3
 8000538:	b281      	uxth	r1, r0
 800053a:	fbb3 f0fe 	udiv	r0, r3, lr
 800053e:	fb0e 3310 	mls	r3, lr, r0, r3
 8000542:	ea41 4103 	orr.w	r1, r1, r3, lsl #16
 8000546:	fb00 f308 	mul.w	r3, r0, r8
 800054a:	428b      	cmp	r3, r1
 800054c:	d907      	bls.n	800055e <__udivmoddi4+0x27e>
 800054e:	1869      	adds	r1, r5, r1
 8000550:	f100 3cff 	add.w	ip, r0, #4294967295
 8000554:	d217      	bcs.n	8000586 <__udivmoddi4+0x2a6>
 8000556:	428b      	cmp	r3, r1
 8000558:	d915      	bls.n	8000586 <__udivmoddi4+0x2a6>
 800055a:	3802      	subs	r0, #2
 800055c:	4429      	add	r1, r5
 800055e:	1ac9      	subs	r1, r1, r3
 8000560:	ea40 4707 	orr.w	r7, r0, r7, lsl #16
 8000564:	e73b      	b.n	80003de <__udivmoddi4+0xfe>
 8000566:	4637      	mov	r7, r6
 8000568:	4630      	mov	r0, r6
 800056a:	e709      	b.n	8000380 <__udivmoddi4+0xa0>
 800056c:	4607      	mov	r7, r0
 800056e:	e6e7      	b.n	8000340 <__udivmoddi4+0x60>
 8000570:	4618      	mov	r0, r3
 8000572:	e6fb      	b.n	800036c <__udivmoddi4+0x8c>
 8000574:	4541      	cmp	r1, r8
 8000576:	d2ab      	bcs.n	80004d0 <__udivmoddi4+0x1f0>
 8000578:	ebb8 0a02 	subs.w	sl, r8, r2
 800057c:	eb69 020e 	sbc.w	r2, r9, lr
 8000580:	3801      	subs	r0, #1
 8000582:	4613      	mov	r3, r2
 8000584:	e7a4      	b.n	80004d0 <__udivmoddi4+0x1f0>
 8000586:	4660      	mov	r0, ip
 8000588:	e7e9      	b.n	800055e <__udivmoddi4+0x27e>
 800058a:	4618      	mov	r0, r3
 800058c:	e795      	b.n	80004ba <__udivmoddi4+0x1da>
 800058e:	4667      	mov	r7, ip
 8000590:	e7d1      	b.n	8000536 <__udivmoddi4+0x256>
 8000592:	4681      	mov	r9, r0
 8000594:	e77c      	b.n	8000490 <__udivmoddi4+0x1b0>
 8000596:	3802      	subs	r0, #2
 8000598:	442c      	add	r4, r5
 800059a:	e747      	b.n	800042c <__udivmoddi4+0x14c>
 800059c:	f1ac 0c02 	sub.w	ip, ip, #2
 80005a0:	442b      	add	r3, r5
 80005a2:	e72f      	b.n	8000404 <__udivmoddi4+0x124>
 80005a4:	4638      	mov	r0, r7
 80005a6:	e708      	b.n	80003ba <__udivmoddi4+0xda>
 80005a8:	4637      	mov	r7, r6
 80005aa:	e6e9      	b.n	8000380 <__udivmoddi4+0xa0>

080005ac <__aeabi_idiv0>:
 80005ac:	4770      	bx	lr
 80005ae:	bf00      	nop

080005b0 <MX_DMA_Init>:
 80005b0:	b507      	push	{r0, r1, r2, lr}
 80005b2:	2300      	movs	r3, #0
 80005b4:	4a21      	ldr	r2, [pc, #132]	; (800063c <MX_DMA_Init+0x8c>)
 80005b6:	9300      	str	r3, [sp, #0]
 80005b8:	6b11      	ldr	r1, [r2, #48]	; 0x30
 80005ba:	4821      	ldr	r0, [pc, #132]	; (8000640 <MX_DMA_Init+0x90>)
 80005bc:	f441 1100 	orr.w	r1, r1, #2097152	; 0x200000
 80005c0:	6311      	str	r1, [r2, #48]	; 0x30
 80005c2:	6b11      	ldr	r1, [r2, #48]	; 0x30
 80005c4:	f401 1100 	and.w	r1, r1, #2097152	; 0x200000
 80005c8:	9100      	str	r1, [sp, #0]
 80005ca:	9900      	ldr	r1, [sp, #0]
 80005cc:	9301      	str	r3, [sp, #4]
 80005ce:	6b11      	ldr	r1, [r2, #48]	; 0x30
 80005d0:	f441 0180 	orr.w	r1, r1, #4194304	; 0x400000
 80005d4:	6311      	str	r1, [r2, #48]	; 0x30
 80005d6:	6b12      	ldr	r2, [r2, #48]	; 0x30
 80005d8:	6203      	str	r3, [r0, #32]
 80005da:	f402 0280 	and.w	r2, r2, #4194304	; 0x400000
 80005de:	9201      	str	r2, [sp, #4]
 80005e0:	9a01      	ldr	r2, [sp, #4]
 80005e2:	4a18      	ldr	r2, [pc, #96]	; (8000644 <MX_DMA_Init+0x94>)
 80005e4:	2180      	movs	r1, #128	; 0x80
 80005e6:	e9c0 2300 	strd	r2, r3, [r0]
 80005ea:	f44f 7200 	mov.w	r2, #512	; 0x200
 80005ee:	e9c0 1202 	strd	r1, r2, [r0, #8]
 80005f2:	f44f 6280 	mov.w	r2, #1024	; 0x400
 80005f6:	e9c0 2304 	strd	r2, r3, [r0, #16]
 80005fa:	f04f 0c04 	mov.w	ip, #4
 80005fe:	2203      	movs	r2, #3
 8000600:	e9c0 3306 	strd	r3, r3, [r0, #24]
 8000604:	e9c0 c209 	strd	ip, r2, [r0, #36]	; 0x24
 8000608:	e9c0 330b 	strd	r3, r3, [r0, #44]	; 0x2c
 800060c:	f000 fd02 	bl	8001014 <HAL_DMA_Init>
 8000610:	b108      	cbz	r0, 8000616 <MX_DMA_Init+0x66>
 8000612:	f000 fac9 	bl	8000ba8 <Error_Handler>
 8000616:	2200      	movs	r2, #0
 8000618:	4611      	mov	r1, r2
 800061a:	2011      	movs	r0, #17
 800061c:	f000 fc8c 	bl	8000f38 <HAL_NVIC_SetPriority>
 8000620:	2011      	movs	r0, #17
 8000622:	f000 fcbd 	bl	8000fa0 <HAL_NVIC_EnableIRQ>
 8000626:	2200      	movs	r2, #0
 8000628:	4611      	mov	r1, r2
 800062a:	2038      	movs	r0, #56	; 0x38
 800062c:	f000 fc84 	bl	8000f38 <HAL_NVIC_SetPriority>
 8000630:	2038      	movs	r0, #56	; 0x38
 8000632:	b003      	add	sp, #12
 8000634:	f85d eb04 	ldr.w	lr, [sp], #4
 8000638:	f000 bcb2 	b.w	8000fa0 <HAL_NVIC_EnableIRQ>
 800063c:	40023800 	.word	0x40023800
 8000640:	200000a8 	.word	0x200000a8
 8000644:	40026410 	.word	0x40026410

08000648 <MX_GPIO_Init>:
 8000648:	b530      	push	{r4, r5, lr}
 800064a:	b089      	sub	sp, #36	; 0x24
 800064c:	2214      	movs	r2, #20
 800064e:	2100      	movs	r1, #0
 8000650:	a803      	add	r0, sp, #12
 8000652:	f002 fabb 	bl	8002bcc <memset>
 8000656:	2400      	movs	r4, #0
 8000658:	4b1d      	ldr	r3, [pc, #116]	; (80006d0 <MX_GPIO_Init+0x88>)
 800065a:	9400      	str	r4, [sp, #0]
 800065c:	6b1a      	ldr	r2, [r3, #48]	; 0x30
 800065e:	4d1d      	ldr	r5, [pc, #116]	; (80006d4 <MX_GPIO_Init+0x8c>)
 8000660:	f042 0204 	orr.w	r2, r2, #4
 8000664:	631a      	str	r2, [r3, #48]	; 0x30
 8000666:	6b1a      	ldr	r2, [r3, #48]	; 0x30
 8000668:	f002 0204 	and.w	r2, r2, #4
 800066c:	9200      	str	r2, [sp, #0]
 800066e:	9a00      	ldr	r2, [sp, #0]
 8000670:	9401      	str	r4, [sp, #4]
 8000672:	6b1a      	ldr	r2, [r3, #48]	; 0x30
 8000674:	f042 0201 	orr.w	r2, r2, #1
 8000678:	631a      	str	r2, [r3, #48]	; 0x30
 800067a:	6b1a      	ldr	r2, [r3, #48]	; 0x30
 800067c:	f002 0201 	and.w	r2, r2, #1
 8000680:	9201      	str	r2, [sp, #4]
 8000682:	9a01      	ldr	r2, [sp, #4]
 8000684:	9402      	str	r4, [sp, #8]
 8000686:	6b1a      	ldr	r2, [r3, #48]	; 0x30
 8000688:	f042 0202 	orr.w	r2, r2, #2
 800068c:	631a      	str	r2, [r3, #48]	; 0x30
 800068e:	6b1b      	ldr	r3, [r3, #48]	; 0x30
 8000690:	f003 0302 	and.w	r3, r3, #2
 8000694:	4622      	mov	r2, r4
 8000696:	9302      	str	r3, [sp, #8]
 8000698:	4628      	mov	r0, r5
 800069a:	2140      	movs	r1, #64	; 0x40
 800069c:	9b02      	ldr	r3, [sp, #8]
 800069e:	f000 ff43 	bl	8001528 <HAL_GPIO_WritePin>
 80006a2:	f44f 5300 	mov.w	r3, #8192	; 0x2000
 80006a6:	a903      	add	r1, sp, #12
 80006a8:	480b      	ldr	r0, [pc, #44]	; (80006d8 <MX_GPIO_Init+0x90>)
 80006aa:	9405      	str	r4, [sp, #20]
 80006ac:	e9cd 3403 	strd	r3, r4, [sp, #12]
 80006b0:	f000 fe60 	bl	8001374 <HAL_GPIO_Init>
 80006b4:	2240      	movs	r2, #64	; 0x40
 80006b6:	2301      	movs	r3, #1
 80006b8:	e9cd 2303 	strd	r2, r3, [sp, #12]
 80006bc:	a903      	add	r1, sp, #12
 80006be:	2303      	movs	r3, #3
 80006c0:	4628      	mov	r0, r5
 80006c2:	9405      	str	r4, [sp, #20]
 80006c4:	9306      	str	r3, [sp, #24]
 80006c6:	f000 fe55 	bl	8001374 <HAL_GPIO_Init>
 80006ca:	b009      	add	sp, #36	; 0x24
 80006cc:	bd30      	pop	{r4, r5, pc}
 80006ce:	bf00      	nop
 80006d0:	40023800 	.word	0x40023800
 80006d4:	40020400 	.word	0x40020400
 80006d8:	40020800 	.word	0x40020800

080006dc <MX_I2C1_Init>:
 80006dc:	b508      	push	{r3, lr}
 80006de:	480b      	ldr	r0, [pc, #44]	; (800070c <MX_I2C1_Init+0x30>)
 80006e0:	4a0b      	ldr	r2, [pc, #44]	; (8000710 <MX_I2C1_Init+0x34>)
 80006e2:	4b0c      	ldr	r3, [pc, #48]	; (8000714 <MX_I2C1_Init+0x38>)
 80006e4:	e9c0 2300 	strd	r2, r3, [r0]
 80006e8:	2300      	movs	r3, #0
 80006ea:	f44f 4280 	mov.w	r2, #16384	; 0x4000
 80006ee:	e9c0 3302 	strd	r3, r3, [r0, #8]
 80006f2:	e9c0 2304 	strd	r2, r3, [r0, #16]
 80006f6:	e9c0 3306 	strd	r3, r3, [r0, #24]
 80006fa:	6203      	str	r3, [r0, #32]
 80006fc:	f001 f8ee 	bl	80018dc <HAL_I2C_Init>
 8000700:	b118      	cbz	r0, 800070a <MX_I2C1_Init+0x2e>
 8000702:	e8bd 4008 	ldmia.w	sp!, {r3, lr}
 8000706:	f000 ba4f 	b.w	8000ba8 <Error_Handler>
 800070a:	bd08      	pop	{r3, pc}
 800070c:	20000108 	.word	0x20000108
 8000710:	40005400 	.word	0x40005400
 8000714:	00061a80 	.word	0x00061a80

08000718 <HAL_I2C_MspInit>:
 8000718:	b530      	push	{r4, r5, lr}
 800071a:	4604      	mov	r4, r0
 800071c:	b089      	sub	sp, #36	; 0x24
 800071e:	2214      	movs	r2, #20
 8000720:	2100      	movs	r1, #0
 8000722:	a803      	add	r0, sp, #12
 8000724:	f002 fa52 	bl	8002bcc <memset>
 8000728:	6822      	ldr	r2, [r4, #0]
 800072a:	4b15      	ldr	r3, [pc, #84]	; (8000780 <HAL_I2C_MspInit+0x68>)
 800072c:	429a      	cmp	r2, r3
 800072e:	d124      	bne.n	800077a <HAL_I2C_MspInit+0x62>
 8000730:	4c14      	ldr	r4, [pc, #80]	; (8000784 <HAL_I2C_MspInit+0x6c>)
 8000732:	4815      	ldr	r0, [pc, #84]	; (8000788 <HAL_I2C_MspInit+0x70>)
 8000734:	2500      	movs	r5, #0
 8000736:	9501      	str	r5, [sp, #4]
 8000738:	6b23      	ldr	r3, [r4, #48]	; 0x30
 800073a:	f043 0302 	orr.w	r3, r3, #2
 800073e:	6323      	str	r3, [r4, #48]	; 0x30
 8000740:	6b23      	ldr	r3, [r4, #48]	; 0x30
 8000742:	f003 0302 	and.w	r3, r3, #2
 8000746:	9301      	str	r3, [sp, #4]
 8000748:	9b01      	ldr	r3, [sp, #4]
 800074a:	f44f 7240 	mov.w	r2, #768	; 0x300
 800074e:	2312      	movs	r3, #18
 8000750:	e9cd 2303 	strd	r2, r3, [sp, #12]
 8000754:	2101      	movs	r1, #1
 8000756:	2303      	movs	r3, #3
 8000758:	e9cd 1305 	strd	r1, r3, [sp, #20]
 800075c:	2304      	movs	r3, #4
 800075e:	a903      	add	r1, sp, #12
 8000760:	9307      	str	r3, [sp, #28]
 8000762:	f000 fe07 	bl	8001374 <HAL_GPIO_Init>
 8000766:	9502      	str	r5, [sp, #8]
 8000768:	6c23      	ldr	r3, [r4, #64]	; 0x40
 800076a:	f443 1300 	orr.w	r3, r3, #2097152	; 0x200000
 800076e:	6423      	str	r3, [r4, #64]	; 0x40
 8000770:	6c23      	ldr	r3, [r4, #64]	; 0x40
 8000772:	f403 1300 	and.w	r3, r3, #2097152	; 0x200000
 8000776:	9302      	str	r3, [sp, #8]
 8000778:	9b02      	ldr	r3, [sp, #8]
 800077a:	b009      	add	sp, #36	; 0x24
 800077c:	bd30      	pop	{r4, r5, pc}
 800077e:	bf00      	nop
 8000780:	40005400 	.word	0x40005400
 8000784:	40023800 	.word	0x40023800
 8000788:	40020400 	.word	0x40020400

0800078c <DMATransferCompleteCallback>:
 800078c:	4b01      	ldr	r3, [pc, #4]	; (8000794 <DMATransferCompleteCallback+0x8>)
 800078e:	2201      	movs	r2, #1
 8000790:	701a      	strb	r2, [r3, #0]
 8000792:	4770      	bx	lr
 8000794:	20000098 	.word	0x20000098

08000798 <SystemClock_Config>:
 8000798:	b530      	push	{r4, r5, lr}
 800079a:	2414      	movs	r4, #20
 800079c:	b095      	sub	sp, #84	; 0x54
 800079e:	4622      	mov	r2, r4
 80007a0:	2100      	movs	r1, #0
 80007a2:	a808      	add	r0, sp, #32
 80007a4:	f002 fa12 	bl	8002bcc <memset>
 80007a8:	4622      	mov	r2, r4
 80007aa:	2100      	movs	r1, #0
 80007ac:	a802      	add	r0, sp, #8
 80007ae:	f002 fa0d 	bl	8002bcc <memset>
 80007b2:	2500      	movs	r5, #0
 80007b4:	4b1c      	ldr	r3, [pc, #112]	; (8000828 <SystemClock_Config+0x90>)
 80007b6:	9500      	str	r5, [sp, #0]
 80007b8:	6c1a      	ldr	r2, [r3, #64]	; 0x40
 80007ba:	f042 5280 	orr.w	r2, r2, #268435456	; 0x10000000
 80007be:	641a      	str	r2, [r3, #64]	; 0x40
 80007c0:	6c1b      	ldr	r3, [r3, #64]	; 0x40
 80007c2:	f003 5380 	and.w	r3, r3, #268435456	; 0x10000000
 80007c6:	9300      	str	r3, [sp, #0]
 80007c8:	9b00      	ldr	r3, [sp, #0]
 80007ca:	4b18      	ldr	r3, [pc, #96]	; (800082c <SystemClock_Config+0x94>)
 80007cc:	9501      	str	r5, [sp, #4]
 80007ce:	681a      	ldr	r2, [r3, #0]
 80007d0:	f442 4240 	orr.w	r2, r2, #49152	; 0xc000
 80007d4:	601a      	str	r2, [r3, #0]
 80007d6:	681b      	ldr	r3, [r3, #0]
 80007d8:	f403 4340 	and.w	r3, r3, #49152	; 0xc000
 80007dc:	9301      	str	r3, [sp, #4]
 80007de:	2201      	movs	r2, #1
 80007e0:	9b01      	ldr	r3, [sp, #4]
 80007e2:	2310      	movs	r3, #16
 80007e4:	2402      	movs	r4, #2
 80007e6:	e9cd 230a 	strd	r2, r3, [sp, #40]	; 0x28
 80007ea:	2108      	movs	r1, #8
 80007ec:	23b4      	movs	r3, #180	; 0xb4
 80007ee:	a807      	add	r0, sp, #28
 80007f0:	e9cd 130f 	strd	r1, r3, [sp, #60]	; 0x3c
 80007f4:	9407      	str	r4, [sp, #28]
 80007f6:	e9cd 450d 	strd	r4, r5, [sp, #52]	; 0x34
 80007fa:	e9cd 4411 	strd	r4, r4, [sp, #68]	; 0x44
 80007fe:	9413      	str	r4, [sp, #76]	; 0x4c
 8000800:	f001 fbf2 	bl	8001fe8 <HAL_RCC_OscConfig>
 8000804:	f001 fab2 	bl	8001d6c <HAL_PWREx_EnableOverDrive>
 8000808:	230f      	movs	r3, #15
 800080a:	e9cd 3402 	strd	r3, r4, [sp, #8]
 800080e:	f44f 50a0 	mov.w	r0, #5120	; 0x1400
 8000812:	f44f 5380 	mov.w	r3, #4096	; 0x1000
 8000816:	e9cd 0305 	strd	r0, r3, [sp, #20]
 800081a:	2105      	movs	r1, #5
 800081c:	a802      	add	r0, sp, #8
 800081e:	9504      	str	r5, [sp, #16]
 8000820:	f001 fae0 	bl	8001de4 <HAL_RCC_ClockConfig>
 8000824:	b015      	add	sp, #84	; 0x54
 8000826:	bd30      	pop	{r4, r5, pc}
 8000828:	40023800 	.word	0x40023800
 800082c:	40007000 	.word	0x40007000

08000830 <main>:
 8000830:	e92d 4ff0 	stmdb	sp!, {r4, r5, r6, r7, r8, r9, sl, fp, lr}
 8000834:	b085      	sub	sp, #20
 8000836:	2501      	movs	r5, #1
 8000838:	f44f 767a 	mov.w	r6, #1000	; 0x3e8
 800083c:	4cbc      	ldr	r4, [pc, #752]	; (8000b30 <main+0x300>)
 800083e:	f000 fb29 	bl	8000e94 <HAL_Init>
 8000842:	2700      	movs	r7, #0
 8000844:	f7ff ffa8 	bl	8000798 <SystemClock_Config>
 8000848:	f7ff fefe 	bl	8000648 <MX_GPIO_Init>
 800084c:	f7ff feb0 	bl	80005b0 <MX_DMA_Init>
 8000850:	f7ff ff44 	bl	80006dc <MX_I2C1_Init>
 8000854:	f000 fa5a 	bl	8000d0c <MX_USART2_UART_Init>
 8000858:	f000 fa0e 	bl	8000c78 <MX_TIM2_Init>
 800085c:	e9cd 5601 	strd	r5, r6, [sp, #4]
 8000860:	462b      	mov	r3, r5
 8000862:	226b      	movs	r2, #107	; 0x6b
 8000864:	21d0      	movs	r1, #208	; 0xd0
 8000866:	9400      	str	r4, [sp, #0]
 8000868:	48b2      	ldr	r0, [pc, #712]	; (8000b34 <main+0x304>)
 800086a:	f001 f973 	bl	8001b54 <HAL_I2C_Mem_Read>
 800086e:	e9cd 5601 	strd	r5, r6, [sp, #4]
 8000872:	462b      	mov	r3, r5
 8000874:	226b      	movs	r2, #107	; 0x6b
 8000876:	21d0      	movs	r1, #208	; 0xd0
 8000878:	9700      	str	r7, [sp, #0]
 800087a:	48ae      	ldr	r0, [pc, #696]	; (8000b34 <main+0x304>)
 800087c:	f001 f8da 	bl	8001a34 <HAL_I2C_Mem_Write>
 8000880:	e9cd 5601 	strd	r5, r6, [sp, #4]
 8000884:	462b      	mov	r3, r5
 8000886:	226b      	movs	r2, #107	; 0x6b
 8000888:	21d0      	movs	r1, #208	; 0xd0
 800088a:	9400      	str	r4, [sp, #0]
 800088c:	48a9      	ldr	r0, [pc, #676]	; (8000b34 <main+0x304>)
 800088e:	f001 f961 	bl	8001b54 <HAL_I2C_Mem_Read>
 8000892:	e9cd 5601 	strd	r5, r6, [sp, #4]
 8000896:	462b      	mov	r3, r5
 8000898:	2275      	movs	r2, #117	; 0x75
 800089a:	21d0      	movs	r1, #208	; 0xd0
 800089c:	9400      	str	r4, [sp, #0]
 800089e:	48a5      	ldr	r0, [pc, #660]	; (8000b34 <main+0x304>)
 80008a0:	f001 f958 	bl	8001b54 <HAL_I2C_Mem_Read>
 80008a4:	2380      	movs	r3, #128	; 0x80
 80008a6:	226b      	movs	r2, #107	; 0x6b
 80008a8:	21d0      	movs	r1, #208	; 0xd0
 80008aa:	e9cd 5601 	strd	r5, r6, [sp, #4]
 80008ae:	9300      	str	r3, [sp, #0]
 80008b0:	48a0      	ldr	r0, [pc, #640]	; (8000b34 <main+0x304>)
 80008b2:	462b      	mov	r3, r5
 80008b4:	f001 f8be 	bl	8001a34 <HAL_I2C_Mem_Write>
 80008b8:	20c8      	movs	r0, #200	; 0xc8
 80008ba:	f000 fb17 	bl	8000eec <HAL_Delay>
 80008be:	f04f 0907 	mov.w	r9, #7
 80008c2:	e9cd 5601 	strd	r5, r6, [sp, #4]
 80008c6:	462b      	mov	r3, r5
 80008c8:	226b      	movs	r2, #107	; 0x6b
 80008ca:	21d0      	movs	r1, #208	; 0xd0
 80008cc:	9400      	str	r4, [sp, #0]
 80008ce:	4899      	ldr	r0, [pc, #612]	; (8000b34 <main+0x304>)
 80008d0:	f001 f940 	bl	8001b54 <HAL_I2C_Mem_Read>
 80008d4:	462b      	mov	r3, r5
 80008d6:	2268      	movs	r2, #104	; 0x68
 80008d8:	21d0      	movs	r1, #208	; 0xd0
 80008da:	e9cd 5601 	strd	r5, r6, [sp, #4]
 80008de:	f8cd 9000 	str.w	r9, [sp]
 80008e2:	4894      	ldr	r0, [pc, #592]	; (8000b34 <main+0x304>)
 80008e4:	f001 f8a6 	bl	8001a34 <HAL_I2C_Mem_Write>
 80008e8:	2064      	movs	r0, #100	; 0x64
 80008ea:	f000 faff 	bl	8000eec <HAL_Delay>
 80008ee:	462b      	mov	r3, r5
 80008f0:	226b      	movs	r2, #107	; 0x6b
 80008f2:	21d0      	movs	r1, #208	; 0xd0
 80008f4:	e9cd 5601 	strd	r5, r6, [sp, #4]
 80008f8:	9500      	str	r5, [sp, #0]
 80008fa:	488e      	ldr	r0, [pc, #568]	; (8000b34 <main+0x304>)
 80008fc:	f001 f89a 	bl	8001a34 <HAL_I2C_Mem_Write>
 8000900:	2064      	movs	r0, #100	; 0x64
 8000902:	f000 faf3 	bl	8000eec <HAL_Delay>
 8000906:	462b      	mov	r3, r5
 8000908:	226b      	movs	r2, #107	; 0x6b
 800090a:	21d0      	movs	r1, #208	; 0xd0
 800090c:	e9cd 5601 	strd	r5, r6, [sp, #4]
 8000910:	9400      	str	r4, [sp, #0]
 8000912:	4888      	ldr	r0, [pc, #544]	; (8000b34 <main+0x304>)
 8000914:	f001 f91e 	bl	8001b54 <HAL_I2C_Mem_Read>
 8000918:	2064      	movs	r0, #100	; 0x64
 800091a:	f000 fae7 	bl	8000eec <HAL_Delay>
 800091e:	462b      	mov	r3, r5
 8000920:	221b      	movs	r2, #27
 8000922:	21d0      	movs	r1, #208	; 0xd0
 8000924:	e9cd 5601 	strd	r5, r6, [sp, #4]
 8000928:	9700      	str	r7, [sp, #0]
 800092a:	4882      	ldr	r0, [pc, #520]	; (8000b34 <main+0x304>)
 800092c:	f001 f882 	bl	8001a34 <HAL_I2C_Mem_Write>
 8000930:	f04f 0810 	mov.w	r8, #16
 8000934:	2064      	movs	r0, #100	; 0x64
 8000936:	f000 fad9 	bl	8000eec <HAL_Delay>
 800093a:	462b      	mov	r3, r5
 800093c:	221c      	movs	r2, #28
 800093e:	21d0      	movs	r1, #208	; 0xd0
 8000940:	e9cd 5601 	strd	r5, r6, [sp, #4]
 8000944:	f8cd 8000 	str.w	r8, [sp]
 8000948:	487a      	ldr	r0, [pc, #488]	; (8000b34 <main+0x304>)
 800094a:	f001 f873 	bl	8001a34 <HAL_I2C_Mem_Write>
 800094e:	2064      	movs	r0, #100	; 0x64
 8000950:	f000 facc 	bl	8000eec <HAL_Delay>
 8000954:	462b      	mov	r3, r5
 8000956:	221a      	movs	r2, #26
 8000958:	21d0      	movs	r1, #208	; 0xd0
 800095a:	e9cd 5601 	strd	r5, r6, [sp, #4]
 800095e:	9500      	str	r5, [sp, #0]
 8000960:	4874      	ldr	r0, [pc, #464]	; (8000b34 <main+0x304>)
 8000962:	f001 f867 	bl	8001a34 <HAL_I2C_Mem_Write>
 8000966:	2064      	movs	r0, #100	; 0x64
 8000968:	f000 fac0 	bl	8000eec <HAL_Delay>
 800096c:	462b      	mov	r3, r5
 800096e:	2219      	movs	r2, #25
 8000970:	21d0      	movs	r1, #208	; 0xd0
 8000972:	e9cd 5601 	strd	r5, r6, [sp, #4]
 8000976:	f8cd 9000 	str.w	r9, [sp]
 800097a:	486e      	ldr	r0, [pc, #440]	; (8000b34 <main+0x304>)
 800097c:	f8df 91f8 	ldr.w	r9, [pc, #504]	; 8000b78 <main+0x348>
 8000980:	f001 f858 	bl	8001a34 <HAL_I2C_Mem_Write>
 8000984:	2064      	movs	r0, #100	; 0x64
 8000986:	f000 fab1 	bl	8000eec <HAL_Delay>
 800098a:	462b      	mov	r3, r5
 800098c:	2237      	movs	r2, #55	; 0x37
 800098e:	21d0      	movs	r1, #208	; 0xd0
 8000990:	e9cd 5601 	strd	r5, r6, [sp, #4]
 8000994:	f8cd 8000 	str.w	r8, [sp]
 8000998:	4866      	ldr	r0, [pc, #408]	; (8000b34 <main+0x304>)
 800099a:	f001 f84b 	bl	8001a34 <HAL_I2C_Mem_Write>
 800099e:	2064      	movs	r0, #100	; 0x64
 80009a0:	f000 faa4 	bl	8000eec <HAL_Delay>
 80009a4:	462b      	mov	r3, r5
 80009a6:	2238      	movs	r2, #56	; 0x38
 80009a8:	21d0      	movs	r1, #208	; 0xd0
 80009aa:	e9cd 5601 	strd	r5, r6, [sp, #4]
 80009ae:	9500      	str	r5, [sp, #0]
 80009b0:	4860      	ldr	r0, [pc, #384]	; (8000b34 <main+0x304>)
 80009b2:	f001 f83f 	bl	8001a34 <HAL_I2C_Mem_Write>
 80009b6:	2064      	movs	r0, #100	; 0x64
 80009b8:	f000 fa98 	bl	8000eec <HAL_Delay>
 80009bc:	485e      	ldr	r0, [pc, #376]	; (8000b38 <main+0x308>)
 80009be:	f001 fcad 	bl	800231c <HAL_TIM_Base_Start>
 80009c2:	4a5e      	ldr	r2, [pc, #376]	; (8000b3c <main+0x30c>)
 80009c4:	485e      	ldr	r0, [pc, #376]	; (8000b40 <main+0x310>)
 80009c6:	4639      	mov	r1, r7
 80009c8:	f000 fcac 	bl	8001324 <HAL_DMA_RegisterCallback>
 80009cc:	462a      	mov	r2, r5
 80009ce:	495d      	ldr	r1, [pc, #372]	; (8000b44 <main+0x314>)
 80009d0:	485d      	ldr	r0, [pc, #372]	; (8000b48 <main+0x318>)
 80009d2:	f001 ff45 	bl	8002860 <HAL_UART_Receive_IT>
 80009d6:	464e      	mov	r6, r9
 80009d8:	f899 3000 	ldrb.w	r3, [r9]
 80009dc:	2b03      	cmp	r3, #3
 80009de:	d8fb      	bhi.n	80009d8 <main+0x1a8>
 80009e0:	e8df f003 	tbb	[pc, r3]
 80009e4:	62601302 	.word	0x62601302
 80009e8:	4b58      	ldr	r3, [pc, #352]	; (8000b4c <main+0x31c>)
 80009ea:	781a      	ldrb	r2, [r3, #0]
 80009ec:	2a00      	cmp	r2, #0
 80009ee:	d0f3      	beq.n	80009d8 <main+0x1a8>
 80009f0:	4a54      	ldr	r2, [pc, #336]	; (8000b44 <main+0x314>)
 80009f2:	7812      	ldrb	r2, [r2, #0]
 80009f4:	2a73      	cmp	r2, #115	; 0x73
 80009f6:	d105      	bne.n	8000a04 <main+0x1d4>
 80009f8:	2201      	movs	r2, #1
 80009fa:	7032      	strb	r2, [r6, #0]
 80009fc:	4a4e      	ldr	r2, [pc, #312]	; (8000b38 <main+0x308>)
 80009fe:	6812      	ldr	r2, [r2, #0]
 8000a00:	2100      	movs	r1, #0
 8000a02:	6251      	str	r1, [r2, #36]	; 0x24
 8000a04:	2200      	movs	r2, #0
 8000a06:	701a      	strb	r2, [r3, #0]
 8000a08:	e7e6      	b.n	80009d8 <main+0x1a8>
 8000a0a:	f04f 0801 	mov.w	r8, #1
 8000a0e:	f04f 35ff 	mov.w	r5, #4294967295
 8000a12:	4643      	mov	r3, r8
 8000a14:	e9cd 8501 	strd	r8, r5, [sp, #4]
 8000a18:	9400      	str	r4, [sp, #0]
 8000a1a:	223a      	movs	r2, #58	; 0x3a
 8000a1c:	21d0      	movs	r1, #208	; 0xd0
 8000a1e:	4845      	ldr	r0, [pc, #276]	; (8000b34 <main+0x304>)
 8000a20:	f001 f898 	bl	8001b54 <HAL_I2C_Mem_Read>
 8000a24:	7823      	ldrb	r3, [r4, #0]
 8000a26:	07db      	lsls	r3, r3, #31
 8000a28:	d5d6      	bpl.n	80009d8 <main+0x1a8>
 8000a2a:	4b43      	ldr	r3, [pc, #268]	; (8000b38 <main+0x308>)
 8000a2c:	4f48      	ldr	r7, [pc, #288]	; (8000b50 <main+0x320>)
 8000a2e:	681b      	ldr	r3, [r3, #0]
 8000a30:	4840      	ldr	r0, [pc, #256]	; (8000b34 <main+0x304>)
 8000a32:	6a5b      	ldr	r3, [r3, #36]	; 0x24
 8000a34:	603b      	str	r3, [r7, #0]
 8000a36:	223a      	movs	r2, #58	; 0x3a
 8000a38:	e9cd 8501 	strd	r8, r5, [sp, #4]
 8000a3c:	4643      	mov	r3, r8
 8000a3e:	21d0      	movs	r1, #208	; 0xd0
 8000a40:	9400      	str	r4, [sp, #0]
 8000a42:	f001 f887 	bl	8001b54 <HAL_I2C_Mem_Read>
 8000a46:	9502      	str	r5, [sp, #8]
 8000a48:	2306      	movs	r3, #6
 8000a4a:	4d42      	ldr	r5, [pc, #264]	; (8000b54 <main+0x324>)
 8000a4c:	9301      	str	r3, [sp, #4]
 8000a4e:	223b      	movs	r2, #59	; 0x3b
 8000a50:	4643      	mov	r3, r8
 8000a52:	21d0      	movs	r1, #208	; 0xd0
 8000a54:	9500      	str	r5, [sp, #0]
 8000a56:	4837      	ldr	r0, [pc, #220]	; (8000b34 <main+0x304>)
 8000a58:	f001 f87c 	bl	8001b54 <HAL_I2C_Mem_Read>
 8000a5c:	483e      	ldr	r0, [pc, #248]	; (8000b58 <main+0x328>)
 8000a5e:	f8df c108 	ldr.w	ip, [pc, #264]	; 8000b68 <main+0x338>
 8000a62:	8803      	ldrh	r3, [r0, #0]
 8000a64:	f895 e001 	ldrb.w	lr, [r5, #1]
 8000a68:	210c      	movs	r1, #12
 8000a6a:	4359      	muls	r1, r3
 8000a6c:	eb0c 0201 	add.w	r2, ip, r1
 8000a70:	f80c e001 	strb.w	lr, [ip, r1]
 8000a74:	7829      	ldrb	r1, [r5, #0]
 8000a76:	7051      	strb	r1, [r2, #1]
 8000a78:	78e9      	ldrb	r1, [r5, #3]
 8000a7a:	7091      	strb	r1, [r2, #2]
 8000a7c:	78a9      	ldrb	r1, [r5, #2]
 8000a7e:	70d1      	strb	r1, [r2, #3]
 8000a80:	4443      	add	r3, r8
 8000a82:	7969      	ldrb	r1, [r5, #5]
 8000a84:	7111      	strb	r1, [r2, #4]
 8000a86:	b29b      	uxth	r3, r3
 8000a88:	7929      	ldrb	r1, [r5, #4]
 8000a8a:	7151      	strb	r1, [r2, #5]
 8000a8c:	f5b3 6ffa 	cmp.w	r3, #2000	; 0x7d0
 8000a90:	6839      	ldr	r1, [r7, #0]
 8000a92:	6091      	str	r1, [r2, #8]
 8000a94:	d201      	bcs.n	8000a9a <main+0x26a>
 8000a96:	8003      	strh	r3, [r0, #0]
 8000a98:	e79e      	b.n	80009d8 <main+0x1a8>
 8000a9a:	2300      	movs	r3, #0
 8000a9c:	8003      	strh	r3, [r0, #0]
 8000a9e:	2302      	movs	r3, #2
 8000aa0:	7033      	strb	r3, [r6, #0]
 8000aa2:	e799      	b.n	80009d8 <main+0x1a8>
 8000aa4:	2303      	movs	r3, #3
 8000aa6:	e7fb      	b.n	8000aa0 <main+0x270>
 8000aa8:	492c      	ldr	r1, [pc, #176]	; (8000b5c <main+0x32c>)
 8000aaa:	482d      	ldr	r0, [pc, #180]	; (8000b60 <main+0x330>)
 8000aac:	4f2d      	ldr	r7, [pc, #180]	; (8000b64 <main+0x334>)
 8000aae:	4d2e      	ldr	r5, [pc, #184]	; (8000b68 <main+0x338>)
 8000ab0:	f8df a0c8 	ldr.w	sl, [pc, #200]	; 8000b7c <main+0x34c>
 8000ab4:	f8df b0a8 	ldr.w	fp, [pc, #168]	; 8000b60 <main+0x330>
 8000ab8:	f002 f8b0 	bl	8002c1c <strcpy>
 8000abc:	2206      	movs	r2, #6
 8000abe:	f04f 33ff 	mov.w	r3, #4294967295
 8000ac2:	4927      	ldr	r1, [pc, #156]	; (8000b60 <main+0x330>)
 8000ac4:	4820      	ldr	r0, [pc, #128]	; (8000b48 <main+0x318>)
 8000ac6:	803a      	strh	r2, [r7, #0]
 8000ac8:	f001 fe6e 	bl	80027a8 <HAL_UART_Transmit>
 8000acc:	f89a 3000 	ldrb.w	r3, [sl]
 8000ad0:	2b00      	cmp	r3, #0
 8000ad2:	d0fb      	beq.n	8000acc <main+0x29c>
 8000ad4:	f9b5 2004 	ldrsh.w	r2, [r5, #4]
 8000ad8:	f9b5 3000 	ldrsh.w	r3, [r5]
 8000adc:	9201      	str	r2, [sp, #4]
 8000ade:	f9b5 2002 	ldrsh.w	r2, [r5, #2]
 8000ae2:	9200      	str	r2, [sp, #0]
 8000ae4:	68aa      	ldr	r2, [r5, #8]
 8000ae6:	4921      	ldr	r1, [pc, #132]	; (8000b6c <main+0x33c>)
 8000ae8:	4658      	mov	r0, fp
 8000aea:	f002 f877 	bl	8002bdc <siprintf>
 8000aee:	4b1d      	ldr	r3, [pc, #116]	; (8000b64 <main+0x334>)
 8000af0:	b282      	uxth	r2, r0
 8000af2:	4659      	mov	r1, fp
 8000af4:	4814      	ldr	r0, [pc, #80]	; (8000b48 <main+0x318>)
 8000af6:	801a      	strh	r2, [r3, #0]
 8000af8:	f001 feda 	bl	80028b0 <HAL_UART_Transmit_DMA>
 8000afc:	4b1c      	ldr	r3, [pc, #112]	; (8000b70 <main+0x340>)
 8000afe:	350c      	adds	r5, #12
 8000b00:	f04f 0800 	mov.w	r8, #0
 8000b04:	429d      	cmp	r5, r3
 8000b06:	f88a 8000 	strb.w	r8, [sl]
 8000b0a:	d1df      	bne.n	8000acc <main+0x29c>
 8000b0c:	2064      	movs	r0, #100	; 0x64
 8000b0e:	f000 f9ed 	bl	8000eec <HAL_Delay>
 8000b12:	4918      	ldr	r1, [pc, #96]	; (8000b74 <main+0x344>)
 8000b14:	4812      	ldr	r0, [pc, #72]	; (8000b60 <main+0x330>)
 8000b16:	f002 f881 	bl	8002c1c <strcpy>
 8000b1a:	2205      	movs	r2, #5
 8000b1c:	f04f 33ff 	mov.w	r3, #4294967295
 8000b20:	490f      	ldr	r1, [pc, #60]	; (8000b60 <main+0x330>)
 8000b22:	4809      	ldr	r0, [pc, #36]	; (8000b48 <main+0x318>)
 8000b24:	803a      	strh	r2, [r7, #0]
 8000b26:	f001 fe3f 	bl	80027a8 <HAL_UART_Transmit>
 8000b2a:	f886 8000 	strb.w	r8, [r6]
 8000b2e:	e753      	b.n	80009d8 <main+0x1a8>
 8000b30:	20000000 	.word	0x20000000
 8000b34:	20000108 	.word	0x20000108
 8000b38:	20005f58 	.word	0x20005f58
 8000b3c:	0800078d 	.word	0x0800078d
 8000b40:	200000a8 	.word	0x200000a8
 8000b44:	2000015e 	.word	0x2000015e
 8000b48:	20005ff8 	.word	0x20005ff8
 8000b4c:	20000099 	.word	0x20000099
 8000b50:	20000094 	.word	0x20000094
 8000b54:	2000015f 	.word	0x2000015f
 8000b58:	2000009a 	.word	0x2000009a
 8000b5c:	08003410 	.word	0x08003410
 8000b60:	20000165 	.word	0x20000165
 8000b64:	2000015c 	.word	0x2000015c
 8000b68:	20000198 	.word	0x20000198
 8000b6c:	08003417 	.word	0x08003417
 8000b70:	20005f58 	.word	0x20005f58
 8000b74:	08003424 	.word	0x08003424
 8000b78:	20000090 	.word	0x20000090
 8000b7c:	20000001 	.word	0x20000001

08000b80 <HAL_UART_TxCpltCallback>:
 8000b80:	4b01      	ldr	r3, [pc, #4]	; (8000b88 <HAL_UART_TxCpltCallback+0x8>)
 8000b82:	2201      	movs	r2, #1
 8000b84:	701a      	strb	r2, [r3, #0]
 8000b86:	4770      	bx	lr
 8000b88:	20000001 	.word	0x20000001

08000b8c <HAL_UART_RxCpltCallback>:
 8000b8c:	4b03      	ldr	r3, [pc, #12]	; (8000b9c <HAL_UART_RxCpltCallback+0x10>)
 8000b8e:	4904      	ldr	r1, [pc, #16]	; (8000ba0 <HAL_UART_RxCpltCallback+0x14>)
 8000b90:	4804      	ldr	r0, [pc, #16]	; (8000ba4 <HAL_UART_RxCpltCallback+0x18>)
 8000b92:	2201      	movs	r2, #1
 8000b94:	701a      	strb	r2, [r3, #0]
 8000b96:	f001 be63 	b.w	8002860 <HAL_UART_Receive_IT>
 8000b9a:	bf00      	nop
 8000b9c:	20000099 	.word	0x20000099
 8000ba0:	2000015e 	.word	0x2000015e
 8000ba4:	20005ff8 	.word	0x20005ff8

08000ba8 <Error_Handler>:
 8000ba8:	4770      	bx	lr
	...

08000bac <HAL_MspInit>:
 8000bac:	b082      	sub	sp, #8
 8000bae:	4b0c      	ldr	r3, [pc, #48]	; (8000be0 <HAL_MspInit+0x34>)
 8000bb0:	2100      	movs	r1, #0
 8000bb2:	9100      	str	r1, [sp, #0]
 8000bb4:	6c5a      	ldr	r2, [r3, #68]	; 0x44
 8000bb6:	f442 4280 	orr.w	r2, r2, #16384	; 0x4000
 8000bba:	645a      	str	r2, [r3, #68]	; 0x44
 8000bbc:	6c5a      	ldr	r2, [r3, #68]	; 0x44
 8000bbe:	f402 4280 	and.w	r2, r2, #16384	; 0x4000
 8000bc2:	9200      	str	r2, [sp, #0]
 8000bc4:	9a00      	ldr	r2, [sp, #0]
 8000bc6:	9101      	str	r1, [sp, #4]
 8000bc8:	6c1a      	ldr	r2, [r3, #64]	; 0x40
 8000bca:	f042 5280 	orr.w	r2, r2, #268435456	; 0x10000000
 8000bce:	641a      	str	r2, [r3, #64]	; 0x40
 8000bd0:	6c1b      	ldr	r3, [r3, #64]	; 0x40
 8000bd2:	f003 5380 	and.w	r3, r3, #268435456	; 0x10000000
 8000bd6:	9301      	str	r3, [sp, #4]
 8000bd8:	9b01      	ldr	r3, [sp, #4]
 8000bda:	b002      	add	sp, #8
 8000bdc:	4770      	bx	lr
 8000bde:	bf00      	nop
 8000be0:	40023800 	.word	0x40023800

08000be4 <NMI_Handler>:
 8000be4:	4770      	bx	lr

08000be6 <HardFault_Handler>:
 8000be6:	e7fe      	b.n	8000be6 <HardFault_Handler>

08000be8 <MemManage_Handler>:
 8000be8:	e7fe      	b.n	8000be8 <MemManage_Handler>

08000bea <BusFault_Handler>:
 8000bea:	e7fe      	b.n	8000bea <BusFault_Handler>

08000bec <UsageFault_Handler>:
 8000bec:	e7fe      	b.n	8000bec <UsageFault_Handler>

08000bee <SVC_Handler>:
 8000bee:	4770      	bx	lr

08000bf0 <DebugMon_Handler>:
 8000bf0:	4770      	bx	lr

08000bf2 <PendSV_Handler>:
 8000bf2:	4770      	bx	lr

08000bf4 <SysTick_Handler>:
 8000bf4:	f000 b968 	b.w	8000ec8 <HAL_IncTick>

08000bf8 <DMA1_Stream6_IRQHandler>:
 8000bf8:	4801      	ldr	r0, [pc, #4]	; (8000c00 <DMA1_Stream6_IRQHandler+0x8>)
 8000bfa:	f000 bad5 	b.w	80011a8 <HAL_DMA_IRQHandler>
 8000bfe:	bf00      	nop
 8000c00:	20005f98 	.word	0x20005f98

08000c04 <USART2_IRQHandler>:
 8000c04:	4801      	ldr	r0, [pc, #4]	; (8000c0c <USART2_IRQHandler+0x8>)
 8000c06:	f001 bf0d 	b.w	8002a24 <HAL_UART_IRQHandler>
 8000c0a:	bf00      	nop
 8000c0c:	20005ff8 	.word	0x20005ff8

08000c10 <DMA2_Stream0_IRQHandler>:
 8000c10:	4801      	ldr	r0, [pc, #4]	; (8000c18 <DMA2_Stream0_IRQHandler+0x8>)
 8000c12:	f000 bac9 	b.w	80011a8 <HAL_DMA_IRQHandler>
 8000c16:	bf00      	nop
 8000c18:	200000a8 	.word	0x200000a8

08000c1c <_sbrk>:
 8000c1c:	4b0b      	ldr	r3, [pc, #44]	; (8000c4c <_sbrk+0x30>)
 8000c1e:	6819      	ldr	r1, [r3, #0]
 8000c20:	b510      	push	{r4, lr}
 8000c22:	4602      	mov	r2, r0
 8000c24:	b909      	cbnz	r1, 8000c2a <_sbrk+0xe>
 8000c26:	490a      	ldr	r1, [pc, #40]	; (8000c50 <_sbrk+0x34>)
 8000c28:	6019      	str	r1, [r3, #0]
 8000c2a:	6818      	ldr	r0, [r3, #0]
 8000c2c:	4909      	ldr	r1, [pc, #36]	; (8000c54 <_sbrk+0x38>)
 8000c2e:	4c0a      	ldr	r4, [pc, #40]	; (8000c58 <_sbrk+0x3c>)
 8000c30:	4402      	add	r2, r0
 8000c32:	1b09      	subs	r1, r1, r4
 8000c34:	428a      	cmp	r2, r1
 8000c36:	d906      	bls.n	8000c46 <_sbrk+0x2a>
 8000c38:	f001 ff9e 	bl	8002b78 <__errno>
 8000c3c:	230c      	movs	r3, #12
 8000c3e:	6003      	str	r3, [r0, #0]
 8000c40:	f04f 30ff 	mov.w	r0, #4294967295
 8000c44:	bd10      	pop	{r4, pc}
 8000c46:	601a      	str	r2, [r3, #0]
 8000c48:	e7fc      	b.n	8000c44 <_sbrk+0x28>
 8000c4a:	bf00      	nop
 8000c4c:	2000009c 	.word	0x2000009c
 8000c50:	20006040 	.word	0x20006040
 8000c54:	20020000 	.word	0x20020000
 8000c58:	00000400 	.word	0x00000400

08000c5c <SystemInit>:
 8000c5c:	4b05      	ldr	r3, [pc, #20]	; (8000c74 <SystemInit+0x18>)
 8000c5e:	f8d3 2088 	ldr.w	r2, [r3, #136]	; 0x88
 8000c62:	f442 0270 	orr.w	r2, r2, #15728640	; 0xf00000
 8000c66:	f8c3 2088 	str.w	r2, [r3, #136]	; 0x88
 8000c6a:	f04f 6200 	mov.w	r2, #134217728	; 0x8000000
 8000c6e:	609a      	str	r2, [r3, #8]
 8000c70:	4770      	bx	lr
 8000c72:	bf00      	nop
 8000c74:	e000ed00 	.word	0xe000ed00

08000c78 <MX_TIM2_Init>:
 8000c78:	b57f      	push	{r0, r1, r2, r3, r4, r5, r6, lr}
 8000c7a:	2210      	movs	r2, #16
 8000c7c:	2100      	movs	r1, #0
 8000c7e:	a802      	add	r0, sp, #8
 8000c80:	f001 ffa4 	bl	8002bcc <memset>
 8000c84:	4815      	ldr	r0, [pc, #84]	; (8000cdc <MX_TIM2_Init+0x64>)
 8000c86:	2259      	movs	r2, #89	; 0x59
 8000c88:	f04f 4180 	mov.w	r1, #1073741824	; 0x40000000
 8000c8c:	2300      	movs	r3, #0
 8000c8e:	e9c0 1200 	strd	r1, r2, [r0]
 8000c92:	f04f 32ff 	mov.w	r2, #4294967295
 8000c96:	e9cd 3300 	strd	r3, r3, [sp]
 8000c9a:	6083      	str	r3, [r0, #8]
 8000c9c:	e9c0 2303 	strd	r2, r3, [r0, #12]
 8000ca0:	6183      	str	r3, [r0, #24]
 8000ca2:	f001 fbb3 	bl	800240c <HAL_TIM_Base_Init>
 8000ca6:	b108      	cbz	r0, 8000cac <MX_TIM2_Init+0x34>
 8000ca8:	f7ff ff7e 	bl	8000ba8 <Error_Handler>
 8000cac:	f44f 5380 	mov.w	r3, #4096	; 0x1000
 8000cb0:	a902      	add	r1, sp, #8
 8000cb2:	480a      	ldr	r0, [pc, #40]	; (8000cdc <MX_TIM2_Init+0x64>)
 8000cb4:	9302      	str	r3, [sp, #8]
 8000cb6:	f001 fbcd 	bl	8002454 <HAL_TIM_ConfigClockSource>
 8000cba:	b108      	cbz	r0, 8000cc0 <MX_TIM2_Init+0x48>
 8000cbc:	f7ff ff74 	bl	8000ba8 <Error_Handler>
 8000cc0:	2300      	movs	r3, #0
 8000cc2:	4669      	mov	r1, sp
 8000cc4:	4805      	ldr	r0, [pc, #20]	; (8000cdc <MX_TIM2_Init+0x64>)
 8000cc6:	e9cd 3300 	strd	r3, r3, [sp]
 8000cca:	f001 fc57 	bl	800257c <HAL_TIMEx_MasterConfigSynchronization>
 8000cce:	b108      	cbz	r0, 8000cd4 <MX_TIM2_Init+0x5c>
 8000cd0:	f7ff ff6a 	bl	8000ba8 <Error_Handler>
 8000cd4:	b007      	add	sp, #28
 8000cd6:	f85d fb04 	ldr.w	pc, [sp], #4
 8000cda:	bf00      	nop
 8000cdc:	20005f58 	.word	0x20005f58

08000ce0 <HAL_TIM_Base_MspInit>:
 8000ce0:	6803      	ldr	r3, [r0, #0]
 8000ce2:	f1b3 4f80 	cmp.w	r3, #1073741824	; 0x40000000
 8000ce6:	b082      	sub	sp, #8
 8000ce8:	d10b      	bne.n	8000d02 <HAL_TIM_Base_MspInit+0x22>
 8000cea:	2300      	movs	r3, #0
 8000cec:	9301      	str	r3, [sp, #4]
 8000cee:	4b06      	ldr	r3, [pc, #24]	; (8000d08 <HAL_TIM_Base_MspInit+0x28>)
 8000cf0:	6c1a      	ldr	r2, [r3, #64]	; 0x40
 8000cf2:	f042 0201 	orr.w	r2, r2, #1
 8000cf6:	641a      	str	r2, [r3, #64]	; 0x40
 8000cf8:	6c1b      	ldr	r3, [r3, #64]	; 0x40
 8000cfa:	f003 0301 	and.w	r3, r3, #1
 8000cfe:	9301      	str	r3, [sp, #4]
 8000d00:	9b01      	ldr	r3, [sp, #4]
 8000d02:	b002      	add	sp, #8
 8000d04:	4770      	bx	lr
 8000d06:	bf00      	nop
 8000d08:	40023800 	.word	0x40023800

08000d0c <MX_USART2_UART_Init>:
 8000d0c:	b508      	push	{r3, lr}
 8000d0e:	480a      	ldr	r0, [pc, #40]	; (8000d38 <MX_USART2_UART_Init+0x2c>)
 8000d10:	4a0a      	ldr	r2, [pc, #40]	; (8000d3c <MX_USART2_UART_Init+0x30>)
 8000d12:	4b0b      	ldr	r3, [pc, #44]	; (8000d40 <MX_USART2_UART_Init+0x34>)
 8000d14:	e9c0 2300 	strd	r2, r3, [r0]
 8000d18:	2300      	movs	r3, #0
 8000d1a:	220c      	movs	r2, #12
 8000d1c:	e9c0 3302 	strd	r3, r3, [r0, #8]
 8000d20:	6103      	str	r3, [r0, #16]
 8000d22:	e9c0 2305 	strd	r2, r3, [r0, #20]
 8000d26:	61c3      	str	r3, [r0, #28]
 8000d28:	f001 fd10 	bl	800274c <HAL_UART_Init>
 8000d2c:	b118      	cbz	r0, 8000d36 <MX_USART2_UART_Init+0x2a>
 8000d2e:	e8bd 4008 	ldmia.w	sp!, {r3, lr}
 8000d32:	f7ff bf39 	b.w	8000ba8 <Error_Handler>
 8000d36:	bd08      	pop	{r3, pc}
 8000d38:	20005ff8 	.word	0x20005ff8
 8000d3c:	40004400 	.word	0x40004400
 8000d40:	001e8480 	.word	0x001e8480

08000d44 <HAL_UART_MspInit>:
 8000d44:	b570      	push	{r4, r5, r6, lr}
 8000d46:	4606      	mov	r6, r0
 8000d48:	b088      	sub	sp, #32
 8000d4a:	2214      	movs	r2, #20
 8000d4c:	2100      	movs	r1, #0
 8000d4e:	a803      	add	r0, sp, #12
 8000d50:	f001 ff3c 	bl	8002bcc <memset>
 8000d54:	6832      	ldr	r2, [r6, #0]
 8000d56:	4b24      	ldr	r3, [pc, #144]	; (8000de8 <HAL_UART_MspInit+0xa4>)
 8000d58:	429a      	cmp	r2, r3
 8000d5a:	d143      	bne.n	8000de4 <HAL_UART_MspInit+0xa0>
 8000d5c:	2500      	movs	r5, #0
 8000d5e:	f503 33fa 	add.w	r3, r3, #128000	; 0x1f400
 8000d62:	9501      	str	r5, [sp, #4]
 8000d64:	6c1a      	ldr	r2, [r3, #64]	; 0x40
 8000d66:	4821      	ldr	r0, [pc, #132]	; (8000dec <HAL_UART_MspInit+0xa8>)
 8000d68:	4c21      	ldr	r4, [pc, #132]	; (8000df0 <HAL_UART_MspInit+0xac>)
 8000d6a:	f442 3200 	orr.w	r2, r2, #131072	; 0x20000
 8000d6e:	641a      	str	r2, [r3, #64]	; 0x40
 8000d70:	6c1a      	ldr	r2, [r3, #64]	; 0x40
 8000d72:	f402 3200 	and.w	r2, r2, #131072	; 0x20000
 8000d76:	9201      	str	r2, [sp, #4]
 8000d78:	9a01      	ldr	r2, [sp, #4]
 8000d7a:	9502      	str	r5, [sp, #8]
 8000d7c:	6b1a      	ldr	r2, [r3, #48]	; 0x30
 8000d7e:	f042 0201 	orr.w	r2, r2, #1
 8000d82:	631a      	str	r2, [r3, #48]	; 0x30
 8000d84:	6b1b      	ldr	r3, [r3, #48]	; 0x30
 8000d86:	f003 0301 	and.w	r3, r3, #1
 8000d8a:	9302      	str	r3, [sp, #8]
 8000d8c:	9b02      	ldr	r3, [sp, #8]
 8000d8e:	220c      	movs	r2, #12
 8000d90:	2302      	movs	r3, #2
 8000d92:	e9cd 2303 	strd	r2, r3, [sp, #12]
 8000d96:	2103      	movs	r1, #3
 8000d98:	2307      	movs	r3, #7
 8000d9a:	e9cd 1306 	strd	r1, r3, [sp, #24]
 8000d9e:	a903      	add	r1, sp, #12
 8000da0:	f000 fae8 	bl	8001374 <HAL_GPIO_Init>
 8000da4:	4813      	ldr	r0, [pc, #76]	; (8000df4 <HAL_UART_MspInit+0xb0>)
 8000da6:	f04f 6300 	mov.w	r3, #134217728	; 0x8000000
 8000daa:	e9c4 0300 	strd	r0, r3, [r4]
 8000dae:	2340      	movs	r3, #64	; 0x40
 8000db0:	e9c4 3502 	strd	r3, r5, [r4, #8]
 8000db4:	4620      	mov	r0, r4
 8000db6:	f44f 6380 	mov.w	r3, #1024	; 0x400
 8000dba:	e9c4 3504 	strd	r3, r5, [r4, #16]
 8000dbe:	e9c4 5506 	strd	r5, r5, [r4, #24]
 8000dc2:	e9c4 5508 	strd	r5, r5, [r4, #32]
 8000dc6:	f000 f925 	bl	8001014 <HAL_DMA_Init>
 8000dca:	b108      	cbz	r0, 8000dd0 <HAL_UART_MspInit+0x8c>
 8000dcc:	f7ff feec 	bl	8000ba8 <Error_Handler>
 8000dd0:	2200      	movs	r2, #0
 8000dd2:	6334      	str	r4, [r6, #48]	; 0x30
 8000dd4:	2026      	movs	r0, #38	; 0x26
 8000dd6:	4611      	mov	r1, r2
 8000dd8:	63a6      	str	r6, [r4, #56]	; 0x38
 8000dda:	f000 f8ad 	bl	8000f38 <HAL_NVIC_SetPriority>
 8000dde:	2026      	movs	r0, #38	; 0x26
 8000de0:	f000 f8de 	bl	8000fa0 <HAL_NVIC_EnableIRQ>
 8000de4:	b008      	add	sp, #32
 8000de6:	bd70      	pop	{r4, r5, r6, pc}
 8000de8:	40004400 	.word	0x40004400
 8000dec:	40020000 	.word	0x40020000
 8000df0:	20005f98 	.word	0x20005f98
 8000df4:	400260a0 	.word	0x400260a0

08000df8 <Reset_Handler>:
 8000df8:	f8df d034 	ldr.w	sp, [pc, #52]	; 8000e30 <LoopFillZerobss+0x14>
 8000dfc:	2100      	movs	r1, #0
 8000dfe:	e003      	b.n	8000e08 <LoopCopyDataInit>

08000e00 <CopyDataInit>:
 8000e00:	4b0c      	ldr	r3, [pc, #48]	; (8000e34 <LoopFillZerobss+0x18>)
 8000e02:	585b      	ldr	r3, [r3, r1]
 8000e04:	5043      	str	r3, [r0, r1]
 8000e06:	3104      	adds	r1, #4

08000e08 <LoopCopyDataInit>:
 8000e08:	480b      	ldr	r0, [pc, #44]	; (8000e38 <LoopFillZerobss+0x1c>)
 8000e0a:	4b0c      	ldr	r3, [pc, #48]	; (8000e3c <LoopFillZerobss+0x20>)
 8000e0c:	1842      	adds	r2, r0, r1
 8000e0e:	429a      	cmp	r2, r3
 8000e10:	d3f6      	bcc.n	8000e00 <CopyDataInit>
 8000e12:	4a0b      	ldr	r2, [pc, #44]	; (8000e40 <LoopFillZerobss+0x24>)
 8000e14:	e002      	b.n	8000e1c <LoopFillZerobss>

08000e16 <FillZerobss>:
 8000e16:	2300      	movs	r3, #0
 8000e18:	f842 3b04 	str.w	r3, [r2], #4

08000e1c <LoopFillZerobss>:
 8000e1c:	4b09      	ldr	r3, [pc, #36]	; (8000e44 <LoopFillZerobss+0x28>)
 8000e1e:	429a      	cmp	r2, r3
 8000e20:	d3f9      	bcc.n	8000e16 <FillZerobss>
 8000e22:	f7ff ff1b 	bl	8000c5c <SystemInit>
 8000e26:	f001 fead 	bl	8002b84 <__libc_init_array>
 8000e2a:	f7ff fd01 	bl	8000830 <main>
 8000e2e:	4770      	bx	lr
 8000e30:	20020000 	.word	0x20020000
 8000e34:	08003490 	.word	0x08003490
 8000e38:	20000000 	.word	0x20000000
 8000e3c:	20000074 	.word	0x20000074
 8000e40:	20000074 	.word	0x20000074
 8000e44:	20006040 	.word	0x20006040

08000e48 <ADC_IRQHandler>:
 8000e48:	e7fe      	b.n	8000e48 <ADC_IRQHandler>
	...

08000e4c <HAL_InitTick>:
 8000e4c:	b538      	push	{r3, r4, r5, lr}
 8000e4e:	4a0e      	ldr	r2, [pc, #56]	; (8000e88 <HAL_InitTick+0x3c>)
 8000e50:	4b0e      	ldr	r3, [pc, #56]	; (8000e8c <HAL_InitTick+0x40>)
 8000e52:	4605      	mov	r5, r0
 8000e54:	7818      	ldrb	r0, [r3, #0]
 8000e56:	f44f 737a 	mov.w	r3, #1000	; 0x3e8
 8000e5a:	fbb3 f3f0 	udiv	r3, r3, r0
 8000e5e:	6810      	ldr	r0, [r2, #0]
 8000e60:	fbb0 f0f3 	udiv	r0, r0, r3
 8000e64:	f000 f8aa 	bl	8000fbc <HAL_SYSTICK_Config>
 8000e68:	4604      	mov	r4, r0
 8000e6a:	b958      	cbnz	r0, 8000e84 <HAL_InitTick+0x38>
 8000e6c:	2d0f      	cmp	r5, #15
 8000e6e:	d809      	bhi.n	8000e84 <HAL_InitTick+0x38>
 8000e70:	4602      	mov	r2, r0
 8000e72:	4629      	mov	r1, r5
 8000e74:	f04f 30ff 	mov.w	r0, #4294967295
 8000e78:	f000 f85e 	bl	8000f38 <HAL_NVIC_SetPriority>
 8000e7c:	4b04      	ldr	r3, [pc, #16]	; (8000e90 <HAL_InitTick+0x44>)
 8000e7e:	4620      	mov	r0, r4
 8000e80:	601d      	str	r5, [r3, #0]
 8000e82:	bd38      	pop	{r3, r4, r5, pc}
 8000e84:	2001      	movs	r0, #1
 8000e86:	e7fc      	b.n	8000e82 <HAL_InitTick+0x36>
 8000e88:	20000004 	.word	0x20000004
 8000e8c:	20000008 	.word	0x20000008
 8000e90:	2000000c 	.word	0x2000000c

08000e94 <HAL_Init>:
 8000e94:	b508      	push	{r3, lr}
 8000e96:	4b0b      	ldr	r3, [pc, #44]	; (8000ec4 <HAL_Init+0x30>)
 8000e98:	681a      	ldr	r2, [r3, #0]
 8000e9a:	f442 7200 	orr.w	r2, r2, #512	; 0x200
 8000e9e:	601a      	str	r2, [r3, #0]
 8000ea0:	681a      	ldr	r2, [r3, #0]
 8000ea2:	f442 6280 	orr.w	r2, r2, #1024	; 0x400
 8000ea6:	601a      	str	r2, [r3, #0]
 8000ea8:	681a      	ldr	r2, [r3, #0]
 8000eaa:	f442 7280 	orr.w	r2, r2, #256	; 0x100
 8000eae:	601a      	str	r2, [r3, #0]
 8000eb0:	2003      	movs	r0, #3
 8000eb2:	f000 f82f 	bl	8000f14 <HAL_NVIC_SetPriorityGrouping>
 8000eb6:	2000      	movs	r0, #0
 8000eb8:	f7ff ffc8 	bl	8000e4c <HAL_InitTick>
 8000ebc:	f7ff fe76 	bl	8000bac <HAL_MspInit>
 8000ec0:	2000      	movs	r0, #0
 8000ec2:	bd08      	pop	{r3, pc}
 8000ec4:	40023c00 	.word	0x40023c00

08000ec8 <HAL_IncTick>:
 8000ec8:	4a03      	ldr	r2, [pc, #12]	; (8000ed8 <HAL_IncTick+0x10>)
 8000eca:	4b04      	ldr	r3, [pc, #16]	; (8000edc <HAL_IncTick+0x14>)
 8000ecc:	6811      	ldr	r1, [r2, #0]
 8000ece:	781b      	ldrb	r3, [r3, #0]
 8000ed0:	440b      	add	r3, r1
 8000ed2:	6013      	str	r3, [r2, #0]
 8000ed4:	4770      	bx	lr
 8000ed6:	bf00      	nop
 8000ed8:	20006038 	.word	0x20006038
 8000edc:	20000008 	.word	0x20000008

08000ee0 <HAL_GetTick>:
 8000ee0:	4b01      	ldr	r3, [pc, #4]	; (8000ee8 <HAL_GetTick+0x8>)
 8000ee2:	6818      	ldr	r0, [r3, #0]
 8000ee4:	4770      	bx	lr
 8000ee6:	bf00      	nop
 8000ee8:	20006038 	.word	0x20006038

08000eec <HAL_Delay>:
 8000eec:	b538      	push	{r3, r4, r5, lr}
 8000eee:	4604      	mov	r4, r0
 8000ef0:	f7ff fff6 	bl	8000ee0 <HAL_GetTick>
 8000ef4:	1c63      	adds	r3, r4, #1
 8000ef6:	bf1c      	itt	ne
 8000ef8:	4b05      	ldrne	r3, [pc, #20]	; (8000f10 <HAL_Delay+0x24>)
 8000efa:	781b      	ldrbne	r3, [r3, #0]
 8000efc:	4605      	mov	r5, r0
 8000efe:	bf18      	it	ne
 8000f00:	18e4      	addne	r4, r4, r3
 8000f02:	f7ff ffed 	bl	8000ee0 <HAL_GetTick>
 8000f06:	1b40      	subs	r0, r0, r5
 8000f08:	42a0      	cmp	r0, r4
 8000f0a:	d3fa      	bcc.n	8000f02 <HAL_Delay+0x16>
 8000f0c:	bd38      	pop	{r3, r4, r5, pc}
 8000f0e:	bf00      	nop
 8000f10:	20000008 	.word	0x20000008

08000f14 <HAL_NVIC_SetPriorityGrouping>:
 8000f14:	4a07      	ldr	r2, [pc, #28]	; (8000f34 <HAL_NVIC_SetPriorityGrouping+0x20>)
 8000f16:	68d3      	ldr	r3, [r2, #12]
 8000f18:	f423 63e0 	bic.w	r3, r3, #1792	; 0x700
 8000f1c:	041b      	lsls	r3, r3, #16
 8000f1e:	0c1b      	lsrs	r3, r3, #16
 8000f20:	f043 63bf 	orr.w	r3, r3, #100139008	; 0x5f80000
 8000f24:	0200      	lsls	r0, r0, #8
 8000f26:	f443 3300 	orr.w	r3, r3, #131072	; 0x20000
 8000f2a:	f400 60e0 	and.w	r0, r0, #1792	; 0x700
 8000f2e:	4303      	orrs	r3, r0
 8000f30:	60d3      	str	r3, [r2, #12]
 8000f32:	4770      	bx	lr
 8000f34:	e000ed00 	.word	0xe000ed00

08000f38 <HAL_NVIC_SetPriority>:
 8000f38:	4b17      	ldr	r3, [pc, #92]	; (8000f98 <HAL_NVIC_SetPriority+0x60>)
 8000f3a:	b570      	push	{r4, r5, r6, lr}
 8000f3c:	68dc      	ldr	r4, [r3, #12]
 8000f3e:	f3c4 2402 	ubfx	r4, r4, #8, #3
 8000f42:	f1c4 0507 	rsb	r5, r4, #7
 8000f46:	2d04      	cmp	r5, #4
 8000f48:	f104 0304 	add.w	r3, r4, #4
 8000f4c:	bf28      	it	cs
 8000f4e:	2504      	movcs	r5, #4
 8000f50:	f04f 36ff 	mov.w	r6, #4294967295
 8000f54:	2b06      	cmp	r3, #6
 8000f56:	fa06 f305 	lsl.w	r3, r6, r5
 8000f5a:	bf8c      	ite	hi
 8000f5c:	3c03      	subhi	r4, #3
 8000f5e:	2400      	movls	r4, #0
 8000f60:	ea21 0303 	bic.w	r3, r1, r3
 8000f64:	40a3      	lsls	r3, r4
 8000f66:	fa06 f404 	lsl.w	r4, r6, r4
 8000f6a:	ea22 0404 	bic.w	r4, r2, r4
 8000f6e:	2800      	cmp	r0, #0
 8000f70:	ea43 0304 	orr.w	r3, r3, r4
 8000f74:	bfa8      	it	ge
 8000f76:	f100 4060 	addge.w	r0, r0, #3758096384	; 0xe0000000
 8000f7a:	ea4f 1303 	mov.w	r3, r3, lsl #4
 8000f7e:	bfbc      	itt	lt
 8000f80:	f000 000f 	andlt.w	r0, r0, #15
 8000f84:	4a05      	ldrlt	r2, [pc, #20]	; (8000f9c <HAL_NVIC_SetPriority+0x64>)
 8000f86:	b2db      	uxtb	r3, r3
 8000f88:	bfaa      	itet	ge
 8000f8a:	f500 4061 	addge.w	r0, r0, #57600	; 0xe100
 8000f8e:	5413      	strblt	r3, [r2, r0]
 8000f90:	f880 3300 	strbge.w	r3, [r0, #768]	; 0x300
 8000f94:	bd70      	pop	{r4, r5, r6, pc}
 8000f96:	bf00      	nop
 8000f98:	e000ed00 	.word	0xe000ed00
 8000f9c:	e000ed14 	.word	0xe000ed14

08000fa0 <HAL_NVIC_EnableIRQ>:
 8000fa0:	2800      	cmp	r0, #0
 8000fa2:	db08      	blt.n	8000fb6 <HAL_NVIC_EnableIRQ+0x16>
 8000fa4:	0942      	lsrs	r2, r0, #5
 8000fa6:	2301      	movs	r3, #1
 8000fa8:	f000 001f 	and.w	r0, r0, #31
 8000fac:	fa03 f000 	lsl.w	r0, r3, r0
 8000fb0:	4b01      	ldr	r3, [pc, #4]	; (8000fb8 <HAL_NVIC_EnableIRQ+0x18>)
 8000fb2:	f843 0022 	str.w	r0, [r3, r2, lsl #2]
 8000fb6:	4770      	bx	lr
 8000fb8:	e000e100 	.word	0xe000e100

08000fbc <HAL_SYSTICK_Config>:
 8000fbc:	3801      	subs	r0, #1
 8000fbe:	f1b0 7f80 	cmp.w	r0, #16777216	; 0x1000000
 8000fc2:	d20a      	bcs.n	8000fda <HAL_SYSTICK_Config+0x1e>
 8000fc4:	4b06      	ldr	r3, [pc, #24]	; (8000fe0 <HAL_SYSTICK_Config+0x24>)
 8000fc6:	4a07      	ldr	r2, [pc, #28]	; (8000fe4 <HAL_SYSTICK_Config+0x28>)
 8000fc8:	6058      	str	r0, [r3, #4]
 8000fca:	21f0      	movs	r1, #240	; 0xf0
 8000fcc:	f882 1023 	strb.w	r1, [r2, #35]	; 0x23
 8000fd0:	2000      	movs	r0, #0
 8000fd2:	2207      	movs	r2, #7
 8000fd4:	6098      	str	r0, [r3, #8]
 8000fd6:	601a      	str	r2, [r3, #0]
 8000fd8:	4770      	bx	lr
 8000fda:	2001      	movs	r0, #1
 8000fdc:	4770      	bx	lr
 8000fde:	bf00      	nop
 8000fe0:	e000e010 	.word	0xe000e010
 8000fe4:	e000ed00 	.word	0xe000ed00

08000fe8 <DMA_CalcBaseAndBitshift>:
 8000fe8:	6803      	ldr	r3, [r0, #0]
 8000fea:	b2da      	uxtb	r2, r3
 8000fec:	f423 737f 	bic.w	r3, r3, #1020	; 0x3fc
 8000ff0:	f023 0303 	bic.w	r3, r3, #3
 8000ff4:	2118      	movs	r1, #24
 8000ff6:	3a10      	subs	r2, #16
 8000ff8:	fbb2 f2f1 	udiv	r2, r2, r1
 8000ffc:	4904      	ldr	r1, [pc, #16]	; (8001010 <DMA_CalcBaseAndBitshift+0x28>)
 8000ffe:	2a03      	cmp	r2, #3
 8001000:	bf88      	it	hi
 8001002:	3304      	addhi	r3, #4
 8001004:	5c89      	ldrb	r1, [r1, r2]
 8001006:	6583      	str	r3, [r0, #88]	; 0x58
 8001008:	65c1      	str	r1, [r0, #92]	; 0x5c
 800100a:	6d80      	ldr	r0, [r0, #88]	; 0x58
 800100c:	4770      	bx	lr
 800100e:	bf00      	nop
 8001010:	08003442 	.word	0x08003442

08001014 <HAL_DMA_Init>:
 8001014:	b570      	push	{r4, r5, r6, lr}
 8001016:	4604      	mov	r4, r0
 8001018:	f7ff ff62 	bl	8000ee0 <HAL_GetTick>
 800101c:	4605      	mov	r5, r0
 800101e:	2c00      	cmp	r4, #0
 8001020:	d071      	beq.n	8001106 <HAL_DMA_Init+0xf2>
 8001022:	2300      	movs	r3, #0
 8001024:	f884 3034 	strb.w	r3, [r4, #52]	; 0x34
 8001028:	6822      	ldr	r2, [r4, #0]
 800102a:	2302      	movs	r3, #2
 800102c:	f884 3035 	strb.w	r3, [r4, #53]	; 0x35
 8001030:	6813      	ldr	r3, [r2, #0]
 8001032:	f023 0301 	bic.w	r3, r3, #1
 8001036:	6013      	str	r3, [r2, #0]
 8001038:	6821      	ldr	r1, [r4, #0]
 800103a:	680b      	ldr	r3, [r1, #0]
 800103c:	07d8      	lsls	r0, r3, #31
 800103e:	d43c      	bmi.n	80010ba <HAL_DMA_Init+0xa6>
 8001040:	680b      	ldr	r3, [r1, #0]
 8001042:	4d32      	ldr	r5, [pc, #200]	; (800110c <HAL_DMA_Init+0xf8>)
 8001044:	69a0      	ldr	r0, [r4, #24]
 8001046:	401d      	ands	r5, r3
 8001048:	e9d4 2301 	ldrd	r2, r3, [r4, #4]
 800104c:	4313      	orrs	r3, r2
 800104e:	68e2      	ldr	r2, [r4, #12]
 8001050:	4313      	orrs	r3, r2
 8001052:	6922      	ldr	r2, [r4, #16]
 8001054:	4313      	orrs	r3, r2
 8001056:	6962      	ldr	r2, [r4, #20]
 8001058:	4313      	orrs	r3, r2
 800105a:	69e2      	ldr	r2, [r4, #28]
 800105c:	4303      	orrs	r3, r0
 800105e:	4313      	orrs	r3, r2
 8001060:	6a22      	ldr	r2, [r4, #32]
 8001062:	4313      	orrs	r3, r2
 8001064:	6a62      	ldr	r2, [r4, #36]	; 0x24
 8001066:	2a04      	cmp	r2, #4
 8001068:	ea43 0305 	orr.w	r3, r3, r5
 800106c:	bf02      	ittt	eq
 800106e:	e9d4 560b 	ldrdeq	r5, r6, [r4, #44]	; 0x2c
 8001072:	4335      	orreq	r5, r6
 8001074:	432b      	orreq	r3, r5
 8001076:	600b      	str	r3, [r1, #0]
 8001078:	694b      	ldr	r3, [r1, #20]
 800107a:	2a04      	cmp	r2, #4
 800107c:	f023 0307 	bic.w	r3, r3, #7
 8001080:	ea43 0302 	orr.w	r3, r3, r2
 8001084:	d10b      	bne.n	800109e <HAL_DMA_Init+0x8a>
 8001086:	6aa2      	ldr	r2, [r4, #40]	; 0x28
 8001088:	6ae5      	ldr	r5, [r4, #44]	; 0x2c
 800108a:	4313      	orrs	r3, r2
 800108c:	b13d      	cbz	r5, 800109e <HAL_DMA_Init+0x8a>
 800108e:	b9f8      	cbnz	r0, 80010d0 <HAL_DMA_Init+0xbc>
 8001090:	2a01      	cmp	r2, #1
 8001092:	d02d      	beq.n	80010f0 <HAL_DMA_Init+0xdc>
 8001094:	d301      	bcc.n	800109a <HAL_DMA_Init+0x86>
 8001096:	2a02      	cmp	r2, #2
 8001098:	d101      	bne.n	800109e <HAL_DMA_Init+0x8a>
 800109a:	01ea      	lsls	r2, r5, #7
 800109c:	d42b      	bmi.n	80010f6 <HAL_DMA_Init+0xe2>
 800109e:	614b      	str	r3, [r1, #20]
 80010a0:	4620      	mov	r0, r4
 80010a2:	f7ff ffa1 	bl	8000fe8 <DMA_CalcBaseAndBitshift>
 80010a6:	6de2      	ldr	r2, [r4, #92]	; 0x5c
 80010a8:	233f      	movs	r3, #63	; 0x3f
 80010aa:	4093      	lsls	r3, r2
 80010ac:	6083      	str	r3, [r0, #8]
 80010ae:	2000      	movs	r0, #0
 80010b0:	2301      	movs	r3, #1
 80010b2:	6560      	str	r0, [r4, #84]	; 0x54
 80010b4:	f884 3035 	strb.w	r3, [r4, #53]	; 0x35
 80010b8:	e009      	b.n	80010ce <HAL_DMA_Init+0xba>
 80010ba:	f7ff ff11 	bl	8000ee0 <HAL_GetTick>
 80010be:	1b40      	subs	r0, r0, r5
 80010c0:	2805      	cmp	r0, #5
 80010c2:	d9b9      	bls.n	8001038 <HAL_DMA_Init+0x24>
 80010c4:	2320      	movs	r3, #32
 80010c6:	6563      	str	r3, [r4, #84]	; 0x54
 80010c8:	2003      	movs	r0, #3
 80010ca:	f884 0035 	strb.w	r0, [r4, #53]	; 0x35
 80010ce:	bd70      	pop	{r4, r5, r6, pc}
 80010d0:	f5b0 5f00 	cmp.w	r0, #8192	; 0x2000
 80010d4:	d113      	bne.n	80010fe <HAL_DMA_Init+0xea>
 80010d6:	2a03      	cmp	r2, #3
 80010d8:	d8e1      	bhi.n	800109e <HAL_DMA_Init+0x8a>
 80010da:	a001      	add	r0, pc, #4	; (adr r0, 80010e0 <HAL_DMA_Init+0xcc>)
 80010dc:	f850 f022 	ldr.w	pc, [r0, r2, lsl #2]
 80010e0:	080010f7 	.word	0x080010f7
 80010e4:	0800109b 	.word	0x0800109b
 80010e8:	080010f7 	.word	0x080010f7
 80010ec:	080010f1 	.word	0x080010f1
 80010f0:	f1b5 7fc0 	cmp.w	r5, #25165824	; 0x1800000
 80010f4:	d1d3      	bne.n	800109e <HAL_DMA_Init+0x8a>
 80010f6:	2340      	movs	r3, #64	; 0x40
 80010f8:	6563      	str	r3, [r4, #84]	; 0x54
 80010fa:	2001      	movs	r0, #1
 80010fc:	e7e5      	b.n	80010ca <HAL_DMA_Init+0xb6>
 80010fe:	2a02      	cmp	r2, #2
 8001100:	d9f9      	bls.n	80010f6 <HAL_DMA_Init+0xe2>
 8001102:	2a03      	cmp	r2, #3
 8001104:	e7c8      	b.n	8001098 <HAL_DMA_Init+0x84>
 8001106:	2001      	movs	r0, #1
 8001108:	e7e1      	b.n	80010ce <HAL_DMA_Init+0xba>
 800110a:	bf00      	nop
 800110c:	f010803f 	.word	0xf010803f

08001110 <HAL_DMA_Start_IT>:
 8001110:	b570      	push	{r4, r5, r6, lr}
 8001112:	f890 4034 	ldrb.w	r4, [r0, #52]	; 0x34
 8001116:	2c01      	cmp	r4, #1
 8001118:	d032      	beq.n	8001180 <HAL_DMA_Start_IT+0x70>
 800111a:	2401      	movs	r4, #1
 800111c:	f880 4034 	strb.w	r4, [r0, #52]	; 0x34
 8001120:	f890 4035 	ldrb.w	r4, [r0, #53]	; 0x35
 8001124:	6d86      	ldr	r6, [r0, #88]	; 0x58
 8001126:	2c01      	cmp	r4, #1
 8001128:	f04f 0500 	mov.w	r5, #0
 800112c:	f04f 0402 	mov.w	r4, #2
 8001130:	d124      	bne.n	800117c <HAL_DMA_Start_IT+0x6c>
 8001132:	f880 4035 	strb.w	r4, [r0, #53]	; 0x35
 8001136:	6804      	ldr	r4, [r0, #0]
 8001138:	6545      	str	r5, [r0, #84]	; 0x54
 800113a:	6825      	ldr	r5, [r4, #0]
 800113c:	f425 2580 	bic.w	r5, r5, #262144	; 0x40000
 8001140:	6025      	str	r5, [r4, #0]
 8001142:	6063      	str	r3, [r4, #4]
 8001144:	6883      	ldr	r3, [r0, #8]
 8001146:	2b40      	cmp	r3, #64	; 0x40
 8001148:	bf0e      	itee	eq
 800114a:	60a2      	streq	r2, [r4, #8]
 800114c:	60a1      	strne	r1, [r4, #8]
 800114e:	60e2      	strne	r2, [r4, #12]
 8001150:	6dc2      	ldr	r2, [r0, #92]	; 0x5c
 8001152:	bf08      	it	eq
 8001154:	60e1      	streq	r1, [r4, #12]
 8001156:	233f      	movs	r3, #63	; 0x3f
 8001158:	4093      	lsls	r3, r2
 800115a:	60b3      	str	r3, [r6, #8]
 800115c:	6823      	ldr	r3, [r4, #0]
 800115e:	f043 0316 	orr.w	r3, r3, #22
 8001162:	6023      	str	r3, [r4, #0]
 8001164:	6c03      	ldr	r3, [r0, #64]	; 0x40
 8001166:	b11b      	cbz	r3, 8001170 <HAL_DMA_Start_IT+0x60>
 8001168:	6823      	ldr	r3, [r4, #0]
 800116a:	f043 0308 	orr.w	r3, r3, #8
 800116e:	6023      	str	r3, [r4, #0]
 8001170:	6823      	ldr	r3, [r4, #0]
 8001172:	f043 0301 	orr.w	r3, r3, #1
 8001176:	6023      	str	r3, [r4, #0]
 8001178:	2000      	movs	r0, #0
 800117a:	bd70      	pop	{r4, r5, r6, pc}
 800117c:	f880 5034 	strb.w	r5, [r0, #52]	; 0x34
 8001180:	2002      	movs	r0, #2
 8001182:	e7fa      	b.n	800117a <HAL_DMA_Start_IT+0x6a>

08001184 <HAL_DMA_Abort_IT>:
 8001184:	f890 3035 	ldrb.w	r3, [r0, #53]	; 0x35
 8001188:	2b02      	cmp	r3, #2
 800118a:	d003      	beq.n	8001194 <HAL_DMA_Abort_IT+0x10>
 800118c:	2380      	movs	r3, #128	; 0x80
 800118e:	6543      	str	r3, [r0, #84]	; 0x54
 8001190:	2001      	movs	r0, #1
 8001192:	4770      	bx	lr
 8001194:	6802      	ldr	r2, [r0, #0]
 8001196:	2305      	movs	r3, #5
 8001198:	f880 3035 	strb.w	r3, [r0, #53]	; 0x35
 800119c:	6813      	ldr	r3, [r2, #0]
 800119e:	f023 0301 	bic.w	r3, r3, #1
 80011a2:	6013      	str	r3, [r2, #0]
 80011a4:	2000      	movs	r0, #0
 80011a6:	4770      	bx	lr

080011a8 <HAL_DMA_IRQHandler>:
 80011a8:	b5f7      	push	{r0, r1, r2, r4, r5, r6, r7, lr}
 80011aa:	2300      	movs	r3, #0
 80011ac:	9301      	str	r3, [sp, #4]
 80011ae:	4b5c      	ldr	r3, [pc, #368]	; (8001320 <HAL_DMA_IRQHandler+0x178>)
 80011b0:	6d85      	ldr	r5, [r0, #88]	; 0x58
 80011b2:	681f      	ldr	r7, [r3, #0]
 80011b4:	6dc3      	ldr	r3, [r0, #92]	; 0x5c
 80011b6:	682e      	ldr	r6, [r5, #0]
 80011b8:	2208      	movs	r2, #8
 80011ba:	409a      	lsls	r2, r3
 80011bc:	4232      	tst	r2, r6
 80011be:	4604      	mov	r4, r0
 80011c0:	d00c      	beq.n	80011dc <HAL_DMA_IRQHandler+0x34>
 80011c2:	6801      	ldr	r1, [r0, #0]
 80011c4:	6808      	ldr	r0, [r1, #0]
 80011c6:	0740      	lsls	r0, r0, #29
 80011c8:	d508      	bpl.n	80011dc <HAL_DMA_IRQHandler+0x34>
 80011ca:	6808      	ldr	r0, [r1, #0]
 80011cc:	f020 0004 	bic.w	r0, r0, #4
 80011d0:	6008      	str	r0, [r1, #0]
 80011d2:	60aa      	str	r2, [r5, #8]
 80011d4:	6d62      	ldr	r2, [r4, #84]	; 0x54
 80011d6:	f042 0201 	orr.w	r2, r2, #1
 80011da:	6562      	str	r2, [r4, #84]	; 0x54
 80011dc:	2201      	movs	r2, #1
 80011de:	409a      	lsls	r2, r3
 80011e0:	4232      	tst	r2, r6
 80011e2:	d008      	beq.n	80011f6 <HAL_DMA_IRQHandler+0x4e>
 80011e4:	6821      	ldr	r1, [r4, #0]
 80011e6:	6949      	ldr	r1, [r1, #20]
 80011e8:	0609      	lsls	r1, r1, #24
 80011ea:	bf41      	itttt	mi
 80011ec:	60aa      	strmi	r2, [r5, #8]
 80011ee:	6d62      	ldrmi	r2, [r4, #84]	; 0x54
 80011f0:	f042 0202 	orrmi.w	r2, r2, #2
 80011f4:	6562      	strmi	r2, [r4, #84]	; 0x54
 80011f6:	2204      	movs	r2, #4
 80011f8:	409a      	lsls	r2, r3
 80011fa:	4232      	tst	r2, r6
 80011fc:	d008      	beq.n	8001210 <HAL_DMA_IRQHandler+0x68>
 80011fe:	6821      	ldr	r1, [r4, #0]
 8001200:	6809      	ldr	r1, [r1, #0]
 8001202:	0788      	lsls	r0, r1, #30
 8001204:	bf41      	itttt	mi
 8001206:	60aa      	strmi	r2, [r5, #8]
 8001208:	6d62      	ldrmi	r2, [r4, #84]	; 0x54
 800120a:	f042 0204 	orrmi.w	r2, r2, #4
 800120e:	6562      	strmi	r2, [r4, #84]	; 0x54
 8001210:	2210      	movs	r2, #16
 8001212:	409a      	lsls	r2, r3
 8001214:	4232      	tst	r2, r6
 8001216:	d010      	beq.n	800123a <HAL_DMA_IRQHandler+0x92>
 8001218:	6823      	ldr	r3, [r4, #0]
 800121a:	6819      	ldr	r1, [r3, #0]
 800121c:	0709      	lsls	r1, r1, #28
 800121e:	d50c      	bpl.n	800123a <HAL_DMA_IRQHandler+0x92>
 8001220:	60aa      	str	r2, [r5, #8]
 8001222:	681a      	ldr	r2, [r3, #0]
 8001224:	0350      	lsls	r0, r2, #13
 8001226:	d537      	bpl.n	8001298 <HAL_DMA_IRQHandler+0xf0>
 8001228:	681b      	ldr	r3, [r3, #0]
 800122a:	0319      	lsls	r1, r3, #12
 800122c:	d401      	bmi.n	8001232 <HAL_DMA_IRQHandler+0x8a>
 800122e:	6c23      	ldr	r3, [r4, #64]	; 0x40
 8001230:	e000      	b.n	8001234 <HAL_DMA_IRQHandler+0x8c>
 8001232:	6ca3      	ldr	r3, [r4, #72]	; 0x48
 8001234:	b10b      	cbz	r3, 800123a <HAL_DMA_IRQHandler+0x92>
 8001236:	4620      	mov	r0, r4
 8001238:	4798      	blx	r3
 800123a:	6de1      	ldr	r1, [r4, #92]	; 0x5c
 800123c:	2220      	movs	r2, #32
 800123e:	408a      	lsls	r2, r1
 8001240:	4232      	tst	r2, r6
 8001242:	d03a      	beq.n	80012ba <HAL_DMA_IRQHandler+0x112>
 8001244:	6823      	ldr	r3, [r4, #0]
 8001246:	6818      	ldr	r0, [r3, #0]
 8001248:	06c6      	lsls	r6, r0, #27
 800124a:	d536      	bpl.n	80012ba <HAL_DMA_IRQHandler+0x112>
 800124c:	60aa      	str	r2, [r5, #8]
 800124e:	f894 2035 	ldrb.w	r2, [r4, #53]	; 0x35
 8001252:	2a05      	cmp	r2, #5
 8001254:	681a      	ldr	r2, [r3, #0]
 8001256:	d127      	bne.n	80012a8 <HAL_DMA_IRQHandler+0x100>
 8001258:	f022 0216 	bic.w	r2, r2, #22
 800125c:	601a      	str	r2, [r3, #0]
 800125e:	695a      	ldr	r2, [r3, #20]
 8001260:	f022 0280 	bic.w	r2, r2, #128	; 0x80
 8001264:	615a      	str	r2, [r3, #20]
 8001266:	6c22      	ldr	r2, [r4, #64]	; 0x40
 8001268:	b90a      	cbnz	r2, 800126e <HAL_DMA_IRQHandler+0xc6>
 800126a:	6ca2      	ldr	r2, [r4, #72]	; 0x48
 800126c:	b11a      	cbz	r2, 8001276 <HAL_DMA_IRQHandler+0xce>
 800126e:	681a      	ldr	r2, [r3, #0]
 8001270:	f022 0208 	bic.w	r2, r2, #8
 8001274:	601a      	str	r2, [r3, #0]
 8001276:	233f      	movs	r3, #63	; 0x3f
 8001278:	408b      	lsls	r3, r1
 800127a:	60ab      	str	r3, [r5, #8]
 800127c:	2300      	movs	r3, #0
 800127e:	f884 3034 	strb.w	r3, [r4, #52]	; 0x34
 8001282:	2301      	movs	r3, #1
 8001284:	f884 3035 	strb.w	r3, [r4, #53]	; 0x35
 8001288:	6d23      	ldr	r3, [r4, #80]	; 0x50
 800128a:	2b00      	cmp	r3, #0
 800128c:	d045      	beq.n	800131a <HAL_DMA_IRQHandler+0x172>
 800128e:	4620      	mov	r0, r4
 8001290:	b003      	add	sp, #12
 8001292:	e8bd 40f0 	ldmia.w	sp!, {r4, r5, r6, r7, lr}
 8001296:	4718      	bx	r3
 8001298:	681a      	ldr	r2, [r3, #0]
 800129a:	05d2      	lsls	r2, r2, #23
 800129c:	bf5e      	ittt	pl
 800129e:	681a      	ldrpl	r2, [r3, #0]
 80012a0:	f022 0208 	bicpl.w	r2, r2, #8
 80012a4:	601a      	strpl	r2, [r3, #0]
 80012a6:	e7c2      	b.n	800122e <HAL_DMA_IRQHandler+0x86>
 80012a8:	0350      	lsls	r0, r2, #13
 80012aa:	d527      	bpl.n	80012fc <HAL_DMA_IRQHandler+0x154>
 80012ac:	681b      	ldr	r3, [r3, #0]
 80012ae:	0319      	lsls	r1, r3, #12
 80012b0:	d431      	bmi.n	8001316 <HAL_DMA_IRQHandler+0x16e>
 80012b2:	6c63      	ldr	r3, [r4, #68]	; 0x44
 80012b4:	b10b      	cbz	r3, 80012ba <HAL_DMA_IRQHandler+0x112>
 80012b6:	4620      	mov	r0, r4
 80012b8:	4798      	blx	r3
 80012ba:	6d63      	ldr	r3, [r4, #84]	; 0x54
 80012bc:	b36b      	cbz	r3, 800131a <HAL_DMA_IRQHandler+0x172>
 80012be:	6d63      	ldr	r3, [r4, #84]	; 0x54
 80012c0:	07da      	lsls	r2, r3, #31
 80012c2:	d519      	bpl.n	80012f8 <HAL_DMA_IRQHandler+0x150>
 80012c4:	2305      	movs	r3, #5
 80012c6:	6822      	ldr	r2, [r4, #0]
 80012c8:	f884 3035 	strb.w	r3, [r4, #53]	; 0x35
 80012cc:	6813      	ldr	r3, [r2, #0]
 80012ce:	f023 0301 	bic.w	r3, r3, #1
 80012d2:	6013      	str	r3, [r2, #0]
 80012d4:	f44f 5316 	mov.w	r3, #9600	; 0x2580
 80012d8:	fbb7 f7f3 	udiv	r7, r7, r3
 80012dc:	9b01      	ldr	r3, [sp, #4]
 80012de:	3301      	adds	r3, #1
 80012e0:	42bb      	cmp	r3, r7
 80012e2:	9301      	str	r3, [sp, #4]
 80012e4:	d802      	bhi.n	80012ec <HAL_DMA_IRQHandler+0x144>
 80012e6:	6813      	ldr	r3, [r2, #0]
 80012e8:	07db      	lsls	r3, r3, #31
 80012ea:	d4f7      	bmi.n	80012dc <HAL_DMA_IRQHandler+0x134>
 80012ec:	2300      	movs	r3, #0
 80012ee:	f884 3034 	strb.w	r3, [r4, #52]	; 0x34
 80012f2:	2301      	movs	r3, #1
 80012f4:	f884 3035 	strb.w	r3, [r4, #53]	; 0x35
 80012f8:	6ce3      	ldr	r3, [r4, #76]	; 0x4c
 80012fa:	e7c6      	b.n	800128a <HAL_DMA_IRQHandler+0xe2>
 80012fc:	681a      	ldr	r2, [r3, #0]
 80012fe:	f412 7280 	ands.w	r2, r2, #256	; 0x100
 8001302:	d108      	bne.n	8001316 <HAL_DMA_IRQHandler+0x16e>
 8001304:	6819      	ldr	r1, [r3, #0]
 8001306:	f021 0110 	bic.w	r1, r1, #16
 800130a:	6019      	str	r1, [r3, #0]
 800130c:	2301      	movs	r3, #1
 800130e:	f884 2034 	strb.w	r2, [r4, #52]	; 0x34
 8001312:	f884 3035 	strb.w	r3, [r4, #53]	; 0x35
 8001316:	6be3      	ldr	r3, [r4, #60]	; 0x3c
 8001318:	e7cc      	b.n	80012b4 <HAL_DMA_IRQHandler+0x10c>
 800131a:	b003      	add	sp, #12
 800131c:	bdf0      	pop	{r4, r5, r6, r7, pc}
 800131e:	bf00      	nop
 8001320:	20000004 	.word	0x20000004

08001324 <HAL_DMA_RegisterCallback>:
 8001324:	f890 3034 	ldrb.w	r3, [r0, #52]	; 0x34
 8001328:	2b01      	cmp	r3, #1
 800132a:	b510      	push	{r4, lr}
 800132c:	4604      	mov	r4, r0
 800132e:	d01f      	beq.n	8001370 <HAL_DMA_RegisterCallback+0x4c>
 8001330:	2301      	movs	r3, #1
 8001332:	f880 3034 	strb.w	r3, [r0, #52]	; 0x34
 8001336:	f890 0035 	ldrb.w	r0, [r0, #53]	; 0x35
 800133a:	4298      	cmp	r0, r3
 800133c:	d113      	bne.n	8001366 <HAL_DMA_RegisterCallback+0x42>
 800133e:	2905      	cmp	r1, #5
 8001340:	d805      	bhi.n	800134e <HAL_DMA_RegisterCallback+0x2a>
 8001342:	e8df f001 	tbb	[pc, r1]
 8001346:	0603      	.short	0x0603
 8001348:	0e0c0a08 	.word	0x0e0c0a08
 800134c:	63e2      	str	r2, [r4, #60]	; 0x3c
 800134e:	2000      	movs	r0, #0
 8001350:	e00a      	b.n	8001368 <HAL_DMA_RegisterCallback+0x44>
 8001352:	6422      	str	r2, [r4, #64]	; 0x40
 8001354:	e7fb      	b.n	800134e <HAL_DMA_RegisterCallback+0x2a>
 8001356:	6462      	str	r2, [r4, #68]	; 0x44
 8001358:	e7f9      	b.n	800134e <HAL_DMA_RegisterCallback+0x2a>
 800135a:	64a2      	str	r2, [r4, #72]	; 0x48
 800135c:	e7f7      	b.n	800134e <HAL_DMA_RegisterCallback+0x2a>
 800135e:	64e2      	str	r2, [r4, #76]	; 0x4c
 8001360:	e7f5      	b.n	800134e <HAL_DMA_RegisterCallback+0x2a>
 8001362:	6522      	str	r2, [r4, #80]	; 0x50
 8001364:	e7f3      	b.n	800134e <HAL_DMA_RegisterCallback+0x2a>
 8001366:	4618      	mov	r0, r3
 8001368:	2300      	movs	r3, #0
 800136a:	f884 3034 	strb.w	r3, [r4, #52]	; 0x34
 800136e:	bd10      	pop	{r4, pc}
 8001370:	2002      	movs	r0, #2
 8001372:	e7fc      	b.n	800136e <HAL_DMA_RegisterCallback+0x4a>

08001374 <HAL_GPIO_Init>:
 8001374:	e92d 4ff0 	stmdb	sp!, {r4, r5, r6, r7, r8, r9, sl, fp, lr}
 8001378:	b085      	sub	sp, #20
 800137a:	680b      	ldr	r3, [r1, #0]
 800137c:	f8df 81a0 	ldr.w	r8, [pc, #416]	; 8001520 <HAL_GPIO_Init+0x1ac>
 8001380:	4a65      	ldr	r2, [pc, #404]	; (8001518 <HAL_GPIO_Init+0x1a4>)
 8001382:	f8df 91a0 	ldr.w	r9, [pc, #416]	; 8001524 <HAL_GPIO_Init+0x1b0>
 8001386:	9301      	str	r3, [sp, #4]
 8001388:	2300      	movs	r3, #0
 800138a:	2401      	movs	r4, #1
 800138c:	9d01      	ldr	r5, [sp, #4]
 800138e:	409c      	lsls	r4, r3
 8001390:	4025      	ands	r5, r4
 8001392:	42ac      	cmp	r4, r5
 8001394:	f040 80ac 	bne.w	80014f0 <HAL_GPIO_Init+0x17c>
 8001398:	684c      	ldr	r4, [r1, #4]
 800139a:	f024 0c10 	bic.w	ip, r4, #16
 800139e:	ea4f 0e43 	mov.w	lr, r3, lsl #1
 80013a2:	2603      	movs	r6, #3
 80013a4:	f10c 37ff 	add.w	r7, ip, #4294967295
 80013a8:	fa06 f60e 	lsl.w	r6, r6, lr
 80013ac:	2f01      	cmp	r7, #1
 80013ae:	ea6f 0606 	mvn.w	r6, r6
 80013b2:	d811      	bhi.n	80013d8 <HAL_GPIO_Init+0x64>
 80013b4:	6887      	ldr	r7, [r0, #8]
 80013b6:	ea07 0a06 	and.w	sl, r7, r6
 80013ba:	68cf      	ldr	r7, [r1, #12]
 80013bc:	fa07 f70e 	lsl.w	r7, r7, lr
 80013c0:	ea47 070a 	orr.w	r7, r7, sl
 80013c4:	6087      	str	r7, [r0, #8]
 80013c6:	6847      	ldr	r7, [r0, #4]
 80013c8:	ea27 0a05 	bic.w	sl, r7, r5
 80013cc:	f3c4 1700 	ubfx	r7, r4, #4, #1
 80013d0:	409f      	lsls	r7, r3
 80013d2:	ea47 070a 	orr.w	r7, r7, sl
 80013d6:	6047      	str	r7, [r0, #4]
 80013d8:	68c7      	ldr	r7, [r0, #12]
 80013da:	ea07 0a06 	and.w	sl, r7, r6
 80013de:	688f      	ldr	r7, [r1, #8]
 80013e0:	fa07 f70e 	lsl.w	r7, r7, lr
 80013e4:	ea47 070a 	orr.w	r7, r7, sl
 80013e8:	f1bc 0f02 	cmp.w	ip, #2
 80013ec:	60c7      	str	r7, [r0, #12]
 80013ee:	d116      	bne.n	800141e <HAL_GPIO_Init+0xaa>
 80013f0:	ea4f 0ad3 	mov.w	sl, r3, lsr #3
 80013f4:	eb00 0a8a 	add.w	sl, r0, sl, lsl #2
 80013f8:	f003 0b07 	and.w	fp, r3, #7
 80013fc:	f8da 7020 	ldr.w	r7, [sl, #32]
 8001400:	ea4f 0b8b 	mov.w	fp, fp, lsl #2
 8001404:	f04f 0c0f 	mov.w	ip, #15
 8001408:	fa0c fc0b 	lsl.w	ip, ip, fp
 800140c:	ea27 0c0c 	bic.w	ip, r7, ip
 8001410:	690f      	ldr	r7, [r1, #16]
 8001412:	fa07 f70b 	lsl.w	r7, r7, fp
 8001416:	ea47 070c 	orr.w	r7, r7, ip
 800141a:	f8ca 7020 	str.w	r7, [sl, #32]
 800141e:	6807      	ldr	r7, [r0, #0]
 8001420:	403e      	ands	r6, r7
 8001422:	f004 0703 	and.w	r7, r4, #3
 8001426:	fa07 fe0e 	lsl.w	lr, r7, lr
 800142a:	ea4e 0606 	orr.w	r6, lr, r6
 800142e:	6006      	str	r6, [r0, #0]
 8001430:	00e6      	lsls	r6, r4, #3
 8001432:	d55d      	bpl.n	80014f0 <HAL_GPIO_Init+0x17c>
 8001434:	f04f 0b00 	mov.w	fp, #0
 8001438:	f8cd b00c 	str.w	fp, [sp, #12]
 800143c:	f8d8 7044 	ldr.w	r7, [r8, #68]	; 0x44
 8001440:	4e36      	ldr	r6, [pc, #216]	; (800151c <HAL_GPIO_Init+0x1a8>)
 8001442:	f447 4780 	orr.w	r7, r7, #16384	; 0x4000
 8001446:	f8c8 7044 	str.w	r7, [r8, #68]	; 0x44
 800144a:	f8d8 7044 	ldr.w	r7, [r8, #68]	; 0x44
 800144e:	f407 4780 	and.w	r7, r7, #16384	; 0x4000
 8001452:	9703      	str	r7, [sp, #12]
 8001454:	9f03      	ldr	r7, [sp, #12]
 8001456:	f023 0703 	bic.w	r7, r3, #3
 800145a:	f107 4780 	add.w	r7, r7, #1073741824	; 0x40000000
 800145e:	f507 379c 	add.w	r7, r7, #79872	; 0x13800
 8001462:	f003 0e03 	and.w	lr, r3, #3
 8001466:	f8d7 a008 	ldr.w	sl, [r7, #8]
 800146a:	ea4f 0e8e 	mov.w	lr, lr, lsl #2
 800146e:	f04f 0c0f 	mov.w	ip, #15
 8001472:	fa0c fc0e 	lsl.w	ip, ip, lr
 8001476:	42b0      	cmp	r0, r6
 8001478:	ea2a 0c0c 	bic.w	ip, sl, ip
 800147c:	d03f      	beq.n	80014fe <HAL_GPIO_Init+0x18a>
 800147e:	f506 6680 	add.w	r6, r6, #1024	; 0x400
 8001482:	42b0      	cmp	r0, r6
 8001484:	d03d      	beq.n	8001502 <HAL_GPIO_Init+0x18e>
 8001486:	f506 6680 	add.w	r6, r6, #1024	; 0x400
 800148a:	42b0      	cmp	r0, r6
 800148c:	d03b      	beq.n	8001506 <HAL_GPIO_Init+0x192>
 800148e:	f506 6680 	add.w	r6, r6, #1024	; 0x400
 8001492:	42b0      	cmp	r0, r6
 8001494:	d039      	beq.n	800150a <HAL_GPIO_Init+0x196>
 8001496:	f506 6680 	add.w	r6, r6, #1024	; 0x400
 800149a:	42b0      	cmp	r0, r6
 800149c:	d037      	beq.n	800150e <HAL_GPIO_Init+0x19a>
 800149e:	4548      	cmp	r0, r9
 80014a0:	d037      	beq.n	8001512 <HAL_GPIO_Init+0x19e>
 80014a2:	f506 6600 	add.w	r6, r6, #2048	; 0x800
 80014a6:	42b0      	cmp	r0, r6
 80014a8:	bf14      	ite	ne
 80014aa:	2607      	movne	r6, #7
 80014ac:	2606      	moveq	r6, #6
 80014ae:	fa06 f60e 	lsl.w	r6, r6, lr
 80014b2:	ea46 060c 	orr.w	r6, r6, ip
 80014b6:	60be      	str	r6, [r7, #8]
 80014b8:	6816      	ldr	r6, [r2, #0]
 80014ba:	43ef      	mvns	r7, r5
 80014bc:	f414 3f80 	tst.w	r4, #65536	; 0x10000
 80014c0:	bf0c      	ite	eq
 80014c2:	403e      	andeq	r6, r7
 80014c4:	432e      	orrne	r6, r5
 80014c6:	6016      	str	r6, [r2, #0]
 80014c8:	6856      	ldr	r6, [r2, #4]
 80014ca:	f414 3f00 	tst.w	r4, #131072	; 0x20000
 80014ce:	bf0c      	ite	eq
 80014d0:	403e      	andeq	r6, r7
 80014d2:	432e      	orrne	r6, r5
 80014d4:	6056      	str	r6, [r2, #4]
 80014d6:	6896      	ldr	r6, [r2, #8]
 80014d8:	f414 1f80 	tst.w	r4, #1048576	; 0x100000
 80014dc:	bf0c      	ite	eq
 80014de:	403e      	andeq	r6, r7
 80014e0:	432e      	orrne	r6, r5
 80014e2:	6096      	str	r6, [r2, #8]
 80014e4:	68d6      	ldr	r6, [r2, #12]
 80014e6:	02a4      	lsls	r4, r4, #10
 80014e8:	bf54      	ite	pl
 80014ea:	403e      	andpl	r6, r7
 80014ec:	432e      	orrmi	r6, r5
 80014ee:	60d6      	str	r6, [r2, #12]
 80014f0:	3301      	adds	r3, #1
 80014f2:	2b10      	cmp	r3, #16
 80014f4:	f47f af49 	bne.w	800138a <HAL_GPIO_Init+0x16>
 80014f8:	b005      	add	sp, #20
 80014fa:	e8bd 8ff0 	ldmia.w	sp!, {r4, r5, r6, r7, r8, r9, sl, fp, pc}
 80014fe:	465e      	mov	r6, fp
 8001500:	e7d5      	b.n	80014ae <HAL_GPIO_Init+0x13a>
 8001502:	2601      	movs	r6, #1
 8001504:	e7d3      	b.n	80014ae <HAL_GPIO_Init+0x13a>
 8001506:	2602      	movs	r6, #2
 8001508:	e7d1      	b.n	80014ae <HAL_GPIO_Init+0x13a>
 800150a:	2603      	movs	r6, #3
 800150c:	e7cf      	b.n	80014ae <HAL_GPIO_Init+0x13a>
 800150e:	2604      	movs	r6, #4
 8001510:	e7cd      	b.n	80014ae <HAL_GPIO_Init+0x13a>
 8001512:	2605      	movs	r6, #5
 8001514:	e7cb      	b.n	80014ae <HAL_GPIO_Init+0x13a>
 8001516:	bf00      	nop
 8001518:	40013c00 	.word	0x40013c00
 800151c:	40020000 	.word	0x40020000
 8001520:	40023800 	.word	0x40023800
 8001524:	40021400 	.word	0x40021400

08001528 <HAL_GPIO_WritePin>:
 8001528:	b10a      	cbz	r2, 800152e <HAL_GPIO_WritePin+0x6>
 800152a:	6181      	str	r1, [r0, #24]
 800152c:	4770      	bx	lr
 800152e:	0409      	lsls	r1, r1, #16
 8001530:	e7fb      	b.n	800152a <HAL_GPIO_WritePin+0x2>

08001532 <I2C_IsAcknowledgeFailed>:
 8001532:	6801      	ldr	r1, [r0, #0]
 8001534:	694b      	ldr	r3, [r1, #20]
 8001536:	f413 6380 	ands.w	r3, r3, #1024	; 0x400
 800153a:	f04f 0200 	mov.w	r2, #0
 800153e:	d010      	beq.n	8001562 <I2C_IsAcknowledgeFailed+0x30>
 8001540:	f46f 6380 	mvn.w	r3, #1024	; 0x400
 8001544:	614b      	str	r3, [r1, #20]
 8001546:	2320      	movs	r3, #32
 8001548:	6302      	str	r2, [r0, #48]	; 0x30
 800154a:	f880 303d 	strb.w	r3, [r0, #61]	; 0x3d
 800154e:	f880 203e 	strb.w	r2, [r0, #62]	; 0x3e
 8001552:	6c03      	ldr	r3, [r0, #64]	; 0x40
 8001554:	f880 203c 	strb.w	r2, [r0, #60]	; 0x3c
 8001558:	f043 0304 	orr.w	r3, r3, #4
 800155c:	6403      	str	r3, [r0, #64]	; 0x40
 800155e:	2001      	movs	r0, #1
 8001560:	4770      	bx	lr
 8001562:	4618      	mov	r0, r3
 8001564:	4770      	bx	lr

08001566 <I2C_WaitOnMasterAddressFlagUntilTimeout>:
 8001566:	e92d 41f0 	stmdb	sp!, {r4, r5, r6, r7, r8, lr}
 800156a:	4604      	mov	r4, r0
 800156c:	4616      	mov	r6, r2
 800156e:	4698      	mov	r8, r3
 8001570:	b28f      	uxth	r7, r1
 8001572:	6825      	ldr	r5, [r4, #0]
 8001574:	6968      	ldr	r0, [r5, #20]
 8001576:	ea37 0000 	bics.w	r0, r7, r0
 800157a:	d017      	beq.n	80015ac <I2C_WaitOnMasterAddressFlagUntilTimeout+0x46>
 800157c:	696b      	ldr	r3, [r5, #20]
 800157e:	055a      	lsls	r2, r3, #21
 8001580:	d516      	bpl.n	80015b0 <I2C_WaitOnMasterAddressFlagUntilTimeout+0x4a>
 8001582:	682b      	ldr	r3, [r5, #0]
 8001584:	f443 7300 	orr.w	r3, r3, #512	; 0x200
 8001588:	602b      	str	r3, [r5, #0]
 800158a:	f46f 6380 	mvn.w	r3, #1024	; 0x400
 800158e:	616b      	str	r3, [r5, #20]
 8001590:	2220      	movs	r2, #32
 8001592:	2300      	movs	r3, #0
 8001594:	6323      	str	r3, [r4, #48]	; 0x30
 8001596:	f884 203d 	strb.w	r2, [r4, #61]	; 0x3d
 800159a:	f884 303e 	strb.w	r3, [r4, #62]	; 0x3e
 800159e:	6c22      	ldr	r2, [r4, #64]	; 0x40
 80015a0:	f042 0204 	orr.w	r2, r2, #4
 80015a4:	6422      	str	r2, [r4, #64]	; 0x40
 80015a6:	f884 303c 	strb.w	r3, [r4, #60]	; 0x3c
 80015aa:	2001      	movs	r0, #1
 80015ac:	e8bd 81f0 	ldmia.w	sp!, {r4, r5, r6, r7, r8, pc}
 80015b0:	1c73      	adds	r3, r6, #1
 80015b2:	d0df      	beq.n	8001574 <I2C_WaitOnMasterAddressFlagUntilTimeout+0xe>
 80015b4:	f7ff fc94 	bl	8000ee0 <HAL_GetTick>
 80015b8:	eba0 0008 	sub.w	r0, r0, r8
 80015bc:	42b0      	cmp	r0, r6
 80015be:	d801      	bhi.n	80015c4 <I2C_WaitOnMasterAddressFlagUntilTimeout+0x5e>
 80015c0:	2e00      	cmp	r6, #0
 80015c2:	d1d6      	bne.n	8001572 <I2C_WaitOnMasterAddressFlagUntilTimeout+0xc>
 80015c4:	2300      	movs	r3, #0
 80015c6:	2220      	movs	r2, #32
 80015c8:	6323      	str	r3, [r4, #48]	; 0x30
 80015ca:	f884 203d 	strb.w	r2, [r4, #61]	; 0x3d
 80015ce:	f884 303e 	strb.w	r3, [r4, #62]	; 0x3e
 80015d2:	6c22      	ldr	r2, [r4, #64]	; 0x40
 80015d4:	f042 0220 	orr.w	r2, r2, #32
 80015d8:	e7e4      	b.n	80015a4 <I2C_WaitOnMasterAddressFlagUntilTimeout+0x3e>

080015da <I2C_WaitOnBTFFlagUntilTimeout>:
 80015da:	b570      	push	{r4, r5, r6, lr}
 80015dc:	4604      	mov	r4, r0
 80015de:	460d      	mov	r5, r1
 80015e0:	4616      	mov	r6, r2
 80015e2:	6823      	ldr	r3, [r4, #0]
 80015e4:	695b      	ldr	r3, [r3, #20]
 80015e6:	075b      	lsls	r3, r3, #29
 80015e8:	d501      	bpl.n	80015ee <I2C_WaitOnBTFFlagUntilTimeout+0x14>
 80015ea:	2000      	movs	r0, #0
 80015ec:	bd70      	pop	{r4, r5, r6, pc}
 80015ee:	4620      	mov	r0, r4
 80015f0:	f7ff ff9f 	bl	8001532 <I2C_IsAcknowledgeFailed>
 80015f4:	b9a8      	cbnz	r0, 8001622 <I2C_WaitOnBTFFlagUntilTimeout+0x48>
 80015f6:	1c6a      	adds	r2, r5, #1
 80015f8:	d0f3      	beq.n	80015e2 <I2C_WaitOnBTFFlagUntilTimeout+0x8>
 80015fa:	f7ff fc71 	bl	8000ee0 <HAL_GetTick>
 80015fe:	1b80      	subs	r0, r0, r6
 8001600:	42a8      	cmp	r0, r5
 8001602:	d801      	bhi.n	8001608 <I2C_WaitOnBTFFlagUntilTimeout+0x2e>
 8001604:	2d00      	cmp	r5, #0
 8001606:	d1ec      	bne.n	80015e2 <I2C_WaitOnBTFFlagUntilTimeout+0x8>
 8001608:	2300      	movs	r3, #0
 800160a:	2220      	movs	r2, #32
 800160c:	6323      	str	r3, [r4, #48]	; 0x30
 800160e:	f884 203d 	strb.w	r2, [r4, #61]	; 0x3d
 8001612:	f884 303e 	strb.w	r3, [r4, #62]	; 0x3e
 8001616:	6c22      	ldr	r2, [r4, #64]	; 0x40
 8001618:	f884 303c 	strb.w	r3, [r4, #60]	; 0x3c
 800161c:	f042 0220 	orr.w	r2, r2, #32
 8001620:	6422      	str	r2, [r4, #64]	; 0x40
 8001622:	2001      	movs	r0, #1
 8001624:	e7e2      	b.n	80015ec <I2C_WaitOnBTFFlagUntilTimeout+0x12>

08001626 <I2C_WaitOnRXNEFlagUntilTimeout>:
 8001626:	b570      	push	{r4, r5, r6, lr}
 8001628:	4604      	mov	r4, r0
 800162a:	460d      	mov	r5, r1
 800162c:	4616      	mov	r6, r2
 800162e:	6820      	ldr	r0, [r4, #0]
 8001630:	6943      	ldr	r3, [r0, #20]
 8001632:	f013 0340 	ands.w	r3, r3, #64	; 0x40
 8001636:	d001      	beq.n	800163c <I2C_WaitOnRXNEFlagUntilTimeout+0x16>
 8001638:	2000      	movs	r0, #0
 800163a:	e010      	b.n	800165e <I2C_WaitOnRXNEFlagUntilTimeout+0x38>
 800163c:	6942      	ldr	r2, [r0, #20]
 800163e:	06d2      	lsls	r2, r2, #27
 8001640:	d50e      	bpl.n	8001660 <I2C_WaitOnRXNEFlagUntilTimeout+0x3a>
 8001642:	f06f 0210 	mvn.w	r2, #16
 8001646:	6142      	str	r2, [r0, #20]
 8001648:	2220      	movs	r2, #32
 800164a:	6323      	str	r3, [r4, #48]	; 0x30
 800164c:	f884 203d 	strb.w	r2, [r4, #61]	; 0x3d
 8001650:	f884 303e 	strb.w	r3, [r4, #62]	; 0x3e
 8001654:	6c22      	ldr	r2, [r4, #64]	; 0x40
 8001656:	6422      	str	r2, [r4, #64]	; 0x40
 8001658:	f884 303c 	strb.w	r3, [r4, #60]	; 0x3c
 800165c:	2001      	movs	r0, #1
 800165e:	bd70      	pop	{r4, r5, r6, pc}
 8001660:	f7ff fc3e 	bl	8000ee0 <HAL_GetTick>
 8001664:	1b80      	subs	r0, r0, r6
 8001666:	42a8      	cmp	r0, r5
 8001668:	d801      	bhi.n	800166e <I2C_WaitOnRXNEFlagUntilTimeout+0x48>
 800166a:	2d00      	cmp	r5, #0
 800166c:	d1df      	bne.n	800162e <I2C_WaitOnRXNEFlagUntilTimeout+0x8>
 800166e:	2300      	movs	r3, #0
 8001670:	2220      	movs	r2, #32
 8001672:	6323      	str	r3, [r4, #48]	; 0x30
 8001674:	f884 203d 	strb.w	r2, [r4, #61]	; 0x3d
 8001678:	f884 303e 	strb.w	r3, [r4, #62]	; 0x3e
 800167c:	6c22      	ldr	r2, [r4, #64]	; 0x40
 800167e:	f042 0220 	orr.w	r2, r2, #32
 8001682:	e7e8      	b.n	8001656 <I2C_WaitOnRXNEFlagUntilTimeout+0x30>

08001684 <I2C_WaitOnFlagUntilTimeout>:
 8001684:	e92d 43f8 	stmdb	sp!, {r3, r4, r5, r6, r7, r8, r9, lr}
 8001688:	9e08      	ldr	r6, [sp, #32]
 800168a:	4604      	mov	r4, r0
 800168c:	4690      	mov	r8, r2
 800168e:	461f      	mov	r7, r3
 8001690:	ea4f 4911 	mov.w	r9, r1, lsr #16
 8001694:	b28d      	uxth	r5, r1
 8001696:	6821      	ldr	r1, [r4, #0]
 8001698:	f1b9 0f01 	cmp.w	r9, #1
 800169c:	bf0c      	ite	eq
 800169e:	694b      	ldreq	r3, [r1, #20]
 80016a0:	698b      	ldrne	r3, [r1, #24]
 80016a2:	ea35 0303 	bics.w	r3, r5, r3
 80016a6:	bf0c      	ite	eq
 80016a8:	2301      	moveq	r3, #1
 80016aa:	2300      	movne	r3, #0
 80016ac:	4598      	cmp	r8, r3
 80016ae:	d001      	beq.n	80016b4 <I2C_WaitOnFlagUntilTimeout+0x30>
 80016b0:	2000      	movs	r0, #0
 80016b2:	e016      	b.n	80016e2 <I2C_WaitOnFlagUntilTimeout+0x5e>
 80016b4:	1c7b      	adds	r3, r7, #1
 80016b6:	d0ef      	beq.n	8001698 <I2C_WaitOnFlagUntilTimeout+0x14>
 80016b8:	f7ff fc12 	bl	8000ee0 <HAL_GetTick>
 80016bc:	1b80      	subs	r0, r0, r6
 80016be:	42b8      	cmp	r0, r7
 80016c0:	d801      	bhi.n	80016c6 <I2C_WaitOnFlagUntilTimeout+0x42>
 80016c2:	2f00      	cmp	r7, #0
 80016c4:	d1e7      	bne.n	8001696 <I2C_WaitOnFlagUntilTimeout+0x12>
 80016c6:	2300      	movs	r3, #0
 80016c8:	2220      	movs	r2, #32
 80016ca:	6323      	str	r3, [r4, #48]	; 0x30
 80016cc:	f884 203d 	strb.w	r2, [r4, #61]	; 0x3d
 80016d0:	f884 303e 	strb.w	r3, [r4, #62]	; 0x3e
 80016d4:	6c22      	ldr	r2, [r4, #64]	; 0x40
 80016d6:	f884 303c 	strb.w	r3, [r4, #60]	; 0x3c
 80016da:	f042 0220 	orr.w	r2, r2, #32
 80016de:	6422      	str	r2, [r4, #64]	; 0x40
 80016e0:	2001      	movs	r0, #1
 80016e2:	e8bd 83f8 	ldmia.w	sp!, {r3, r4, r5, r6, r7, r8, r9, pc}

080016e6 <I2C_WaitOnTXEFlagUntilTimeout>:
 80016e6:	b570      	push	{r4, r5, r6, lr}
 80016e8:	4604      	mov	r4, r0
 80016ea:	460d      	mov	r5, r1
 80016ec:	4616      	mov	r6, r2
 80016ee:	6823      	ldr	r3, [r4, #0]
 80016f0:	695b      	ldr	r3, [r3, #20]
 80016f2:	061b      	lsls	r3, r3, #24
 80016f4:	d501      	bpl.n	80016fa <I2C_WaitOnTXEFlagUntilTimeout+0x14>
 80016f6:	2000      	movs	r0, #0
 80016f8:	bd70      	pop	{r4, r5, r6, pc}
 80016fa:	4620      	mov	r0, r4
 80016fc:	f7ff ff19 	bl	8001532 <I2C_IsAcknowledgeFailed>
 8001700:	b9a8      	cbnz	r0, 800172e <I2C_WaitOnTXEFlagUntilTimeout+0x48>
 8001702:	1c6a      	adds	r2, r5, #1
 8001704:	d0f3      	beq.n	80016ee <I2C_WaitOnTXEFlagUntilTimeout+0x8>
 8001706:	f7ff fbeb 	bl	8000ee0 <HAL_GetTick>
 800170a:	1b80      	subs	r0, r0, r6
 800170c:	42a8      	cmp	r0, r5
 800170e:	d801      	bhi.n	8001714 <I2C_WaitOnTXEFlagUntilTimeout+0x2e>
 8001710:	2d00      	cmp	r5, #0
 8001712:	d1ec      	bne.n	80016ee <I2C_WaitOnTXEFlagUntilTimeout+0x8>
 8001714:	2300      	movs	r3, #0
 8001716:	2220      	movs	r2, #32
 8001718:	6323      	str	r3, [r4, #48]	; 0x30
 800171a:	f884 203d 	strb.w	r2, [r4, #61]	; 0x3d
 800171e:	f884 303e 	strb.w	r3, [r4, #62]	; 0x3e
 8001722:	6c22      	ldr	r2, [r4, #64]	; 0x40
 8001724:	f884 303c 	strb.w	r3, [r4, #60]	; 0x3c
 8001728:	f042 0220 	orr.w	r2, r2, #32
 800172c:	6422      	str	r2, [r4, #64]	; 0x40
 800172e:	2001      	movs	r0, #1
 8001730:	e7e2      	b.n	80016f8 <I2C_WaitOnTXEFlagUntilTimeout+0x12>
	...

08001734 <I2C_RequestMemoryWrite>:
 8001734:	e92d 41ff 	stmdb	sp!, {r0, r1, r2, r3, r4, r5, r6, r7, r8, lr}
 8001738:	4615      	mov	r5, r2
 800173a:	6802      	ldr	r2, [r0, #0]
 800173c:	9e0b      	ldr	r6, [sp, #44]	; 0x2c
 800173e:	4698      	mov	r8, r3
 8001740:	6813      	ldr	r3, [r2, #0]
 8001742:	f443 7380 	orr.w	r3, r3, #256	; 0x100
 8001746:	6013      	str	r3, [r2, #0]
 8001748:	460f      	mov	r7, r1
 800174a:	9b0a      	ldr	r3, [sp, #40]	; 0x28
 800174c:	9600      	str	r6, [sp, #0]
 800174e:	2200      	movs	r2, #0
 8001750:	f04f 1101 	mov.w	r1, #65537	; 0x10001
 8001754:	4604      	mov	r4, r0
 8001756:	f7ff ff95 	bl	8001684 <I2C_WaitOnFlagUntilTimeout>
 800175a:	6823      	ldr	r3, [r4, #0]
 800175c:	b138      	cbz	r0, 800176e <I2C_RequestMemoryWrite+0x3a>
 800175e:	681b      	ldr	r3, [r3, #0]
 8001760:	05db      	lsls	r3, r3, #23
 8001762:	d502      	bpl.n	800176a <I2C_RequestMemoryWrite+0x36>
 8001764:	f44f 7300 	mov.w	r3, #512	; 0x200
 8001768:	6423      	str	r3, [r4, #64]	; 0x40
 800176a:	2003      	movs	r0, #3
 800176c:	e00a      	b.n	8001784 <I2C_RequestMemoryWrite+0x50>
 800176e:	f007 07fe 	and.w	r7, r7, #254	; 0xfe
 8001772:	611f      	str	r7, [r3, #16]
 8001774:	9a0a      	ldr	r2, [sp, #40]	; 0x28
 8001776:	4919      	ldr	r1, [pc, #100]	; (80017dc <I2C_RequestMemoryWrite+0xa8>)
 8001778:	4633      	mov	r3, r6
 800177a:	4620      	mov	r0, r4
 800177c:	f7ff fef3 	bl	8001566 <I2C_WaitOnMasterAddressFlagUntilTimeout>
 8001780:	b118      	cbz	r0, 800178a <I2C_RequestMemoryWrite+0x56>
 8001782:	2001      	movs	r0, #1
 8001784:	b004      	add	sp, #16
 8001786:	e8bd 81f0 	ldmia.w	sp!, {r4, r5, r6, r7, r8, pc}
 800178a:	6823      	ldr	r3, [r4, #0]
 800178c:	9003      	str	r0, [sp, #12]
 800178e:	695a      	ldr	r2, [r3, #20]
 8001790:	9203      	str	r2, [sp, #12]
 8001792:	699b      	ldr	r3, [r3, #24]
 8001794:	9303      	str	r3, [sp, #12]
 8001796:	4632      	mov	r2, r6
 8001798:	990a      	ldr	r1, [sp, #40]	; 0x28
 800179a:	9b03      	ldr	r3, [sp, #12]
 800179c:	4620      	mov	r0, r4
 800179e:	f7ff ffa2 	bl	80016e6 <I2C_WaitOnTXEFlagUntilTimeout>
 80017a2:	b140      	cbz	r0, 80017b6 <I2C_RequestMemoryWrite+0x82>
 80017a4:	6c23      	ldr	r3, [r4, #64]	; 0x40
 80017a6:	2b04      	cmp	r3, #4
 80017a8:	bf01      	itttt	eq
 80017aa:	6822      	ldreq	r2, [r4, #0]
 80017ac:	6813      	ldreq	r3, [r2, #0]
 80017ae:	f443 7300 	orreq.w	r3, r3, #512	; 0x200
 80017b2:	6013      	streq	r3, [r2, #0]
 80017b4:	e7e5      	b.n	8001782 <I2C_RequestMemoryWrite+0x4e>
 80017b6:	f1b8 0f01 	cmp.w	r8, #1
 80017ba:	6823      	ldr	r3, [r4, #0]
 80017bc:	d102      	bne.n	80017c4 <I2C_RequestMemoryWrite+0x90>
 80017be:	b2ed      	uxtb	r5, r5
 80017c0:	611d      	str	r5, [r3, #16]
 80017c2:	e7df      	b.n	8001784 <I2C_RequestMemoryWrite+0x50>
 80017c4:	0a2a      	lsrs	r2, r5, #8
 80017c6:	611a      	str	r2, [r3, #16]
 80017c8:	990a      	ldr	r1, [sp, #40]	; 0x28
 80017ca:	4632      	mov	r2, r6
 80017cc:	4620      	mov	r0, r4
 80017ce:	f7ff ff8a 	bl	80016e6 <I2C_WaitOnTXEFlagUntilTimeout>
 80017d2:	2800      	cmp	r0, #0
 80017d4:	d1e6      	bne.n	80017a4 <I2C_RequestMemoryWrite+0x70>
 80017d6:	6823      	ldr	r3, [r4, #0]
 80017d8:	e7f1      	b.n	80017be <I2C_RequestMemoryWrite+0x8a>
 80017da:	bf00      	nop
 80017dc:	00010002 	.word	0x00010002

080017e0 <I2C_RequestMemoryRead>:
 80017e0:	e92d 41ff 	stmdb	sp!, {r0, r1, r2, r3, r4, r5, r6, r7, r8, lr}
 80017e4:	4698      	mov	r8, r3
 80017e6:	6803      	ldr	r3, [r0, #0]
 80017e8:	9d0b      	ldr	r5, [sp, #44]	; 0x2c
 80017ea:	4616      	mov	r6, r2
 80017ec:	681a      	ldr	r2, [r3, #0]
 80017ee:	f442 6280 	orr.w	r2, r2, #1024	; 0x400
 80017f2:	601a      	str	r2, [r3, #0]
 80017f4:	681a      	ldr	r2, [r3, #0]
 80017f6:	f442 7280 	orr.w	r2, r2, #256	; 0x100
 80017fa:	601a      	str	r2, [r3, #0]
 80017fc:	460f      	mov	r7, r1
 80017fe:	9b0a      	ldr	r3, [sp, #40]	; 0x28
 8001800:	9500      	str	r5, [sp, #0]
 8001802:	2200      	movs	r2, #0
 8001804:	f04f 1101 	mov.w	r1, #65537	; 0x10001
 8001808:	4604      	mov	r4, r0
 800180a:	f7ff ff3b 	bl	8001684 <I2C_WaitOnFlagUntilTimeout>
 800180e:	6823      	ldr	r3, [r4, #0]
 8001810:	b148      	cbz	r0, 8001826 <I2C_RequestMemoryRead+0x46>
 8001812:	681b      	ldr	r3, [r3, #0]
 8001814:	05db      	lsls	r3, r3, #23
 8001816:	d502      	bpl.n	800181e <I2C_RequestMemoryRead+0x3e>
 8001818:	f44f 7300 	mov.w	r3, #512	; 0x200
 800181c:	6423      	str	r3, [r4, #64]	; 0x40
 800181e:	2003      	movs	r0, #3
 8001820:	b004      	add	sp, #16
 8001822:	e8bd 81f0 	ldmia.w	sp!, {r4, r5, r6, r7, r8, pc}
 8001826:	b2ff      	uxtb	r7, r7
 8001828:	f007 02fe 	and.w	r2, r7, #254	; 0xfe
 800182c:	611a      	str	r2, [r3, #16]
 800182e:	492a      	ldr	r1, [pc, #168]	; (80018d8 <I2C_RequestMemoryRead+0xf8>)
 8001830:	9a0a      	ldr	r2, [sp, #40]	; 0x28
 8001832:	462b      	mov	r3, r5
 8001834:	4620      	mov	r0, r4
 8001836:	f7ff fe96 	bl	8001566 <I2C_WaitOnMasterAddressFlagUntilTimeout>
 800183a:	b108      	cbz	r0, 8001840 <I2C_RequestMemoryRead+0x60>
 800183c:	2001      	movs	r0, #1
 800183e:	e7ef      	b.n	8001820 <I2C_RequestMemoryRead+0x40>
 8001840:	6823      	ldr	r3, [r4, #0]
 8001842:	9003      	str	r0, [sp, #12]
 8001844:	695a      	ldr	r2, [r3, #20]
 8001846:	9203      	str	r2, [sp, #12]
 8001848:	699b      	ldr	r3, [r3, #24]
 800184a:	9303      	str	r3, [sp, #12]
 800184c:	462a      	mov	r2, r5
 800184e:	990a      	ldr	r1, [sp, #40]	; 0x28
 8001850:	9b03      	ldr	r3, [sp, #12]
 8001852:	4620      	mov	r0, r4
 8001854:	f7ff ff47 	bl	80016e6 <I2C_WaitOnTXEFlagUntilTimeout>
 8001858:	b140      	cbz	r0, 800186c <I2C_RequestMemoryRead+0x8c>
 800185a:	6c23      	ldr	r3, [r4, #64]	; 0x40
 800185c:	2b04      	cmp	r3, #4
 800185e:	bf01      	itttt	eq
 8001860:	6822      	ldreq	r2, [r4, #0]
 8001862:	6813      	ldreq	r3, [r2, #0]
 8001864:	f443 7300 	orreq.w	r3, r3, #512	; 0x200
 8001868:	6013      	streq	r3, [r2, #0]
 800186a:	e7e7      	b.n	800183c <I2C_RequestMemoryRead+0x5c>
 800186c:	f1b8 0f01 	cmp.w	r8, #1
 8001870:	6823      	ldr	r3, [r4, #0]
 8001872:	d125      	bne.n	80018c0 <I2C_RequestMemoryRead+0xe0>
 8001874:	b2f6      	uxtb	r6, r6
 8001876:	611e      	str	r6, [r3, #16]
 8001878:	462a      	mov	r2, r5
 800187a:	990a      	ldr	r1, [sp, #40]	; 0x28
 800187c:	4620      	mov	r0, r4
 800187e:	f7ff ff32 	bl	80016e6 <I2C_WaitOnTXEFlagUntilTimeout>
 8001882:	4602      	mov	r2, r0
 8001884:	2800      	cmp	r0, #0
 8001886:	d1e8      	bne.n	800185a <I2C_RequestMemoryRead+0x7a>
 8001888:	6821      	ldr	r1, [r4, #0]
 800188a:	680b      	ldr	r3, [r1, #0]
 800188c:	f443 7380 	orr.w	r3, r3, #256	; 0x100
 8001890:	600b      	str	r3, [r1, #0]
 8001892:	4620      	mov	r0, r4
 8001894:	9b0a      	ldr	r3, [sp, #40]	; 0x28
 8001896:	9500      	str	r5, [sp, #0]
 8001898:	f04f 1101 	mov.w	r1, #65537	; 0x10001
 800189c:	f7ff fef2 	bl	8001684 <I2C_WaitOnFlagUntilTimeout>
 80018a0:	6823      	ldr	r3, [r4, #0]
 80018a2:	2800      	cmp	r0, #0
 80018a4:	d1b5      	bne.n	8001812 <I2C_RequestMemoryRead+0x32>
 80018a6:	f047 0701 	orr.w	r7, r7, #1
 80018aa:	611f      	str	r7, [r3, #16]
 80018ac:	9a0a      	ldr	r2, [sp, #40]	; 0x28
 80018ae:	490a      	ldr	r1, [pc, #40]	; (80018d8 <I2C_RequestMemoryRead+0xf8>)
 80018b0:	462b      	mov	r3, r5
 80018b2:	4620      	mov	r0, r4
 80018b4:	f7ff fe57 	bl	8001566 <I2C_WaitOnMasterAddressFlagUntilTimeout>
 80018b8:	3000      	adds	r0, #0
 80018ba:	bf18      	it	ne
 80018bc:	2001      	movne	r0, #1
 80018be:	e7af      	b.n	8001820 <I2C_RequestMemoryRead+0x40>
 80018c0:	0a32      	lsrs	r2, r6, #8
 80018c2:	611a      	str	r2, [r3, #16]
 80018c4:	990a      	ldr	r1, [sp, #40]	; 0x28
 80018c6:	462a      	mov	r2, r5
 80018c8:	4620      	mov	r0, r4
 80018ca:	f7ff ff0c 	bl	80016e6 <I2C_WaitOnTXEFlagUntilTimeout>
 80018ce:	2800      	cmp	r0, #0
 80018d0:	d1c3      	bne.n	800185a <I2C_RequestMemoryRead+0x7a>
 80018d2:	6823      	ldr	r3, [r4, #0]
 80018d4:	e7ce      	b.n	8001874 <I2C_RequestMemoryRead+0x94>
 80018d6:	bf00      	nop
 80018d8:	00010002 	.word	0x00010002

080018dc <HAL_I2C_Init>:
 80018dc:	b570      	push	{r4, r5, r6, lr}
 80018de:	4604      	mov	r4, r0
 80018e0:	b908      	cbnz	r0, 80018e6 <HAL_I2C_Init+0xa>
 80018e2:	2001      	movs	r0, #1
 80018e4:	bd70      	pop	{r4, r5, r6, pc}
 80018e6:	f890 303d 	ldrb.w	r3, [r0, #61]	; 0x3d
 80018ea:	f003 02ff 	and.w	r2, r3, #255	; 0xff
 80018ee:	b91b      	cbnz	r3, 80018f8 <HAL_I2C_Init+0x1c>
 80018f0:	f880 203c 	strb.w	r2, [r0, #60]	; 0x3c
 80018f4:	f7fe ff10 	bl	8000718 <HAL_I2C_MspInit>
 80018f8:	2324      	movs	r3, #36	; 0x24
 80018fa:	f884 303d 	strb.w	r3, [r4, #61]	; 0x3d
 80018fe:	6823      	ldr	r3, [r4, #0]
 8001900:	681a      	ldr	r2, [r3, #0]
 8001902:	f022 0201 	bic.w	r2, r2, #1
 8001906:	601a      	str	r2, [r3, #0]
 8001908:	681a      	ldr	r2, [r3, #0]
 800190a:	f442 4200 	orr.w	r2, r2, #32768	; 0x8000
 800190e:	601a      	str	r2, [r3, #0]
 8001910:	681a      	ldr	r2, [r3, #0]
 8001912:	f422 4200 	bic.w	r2, r2, #32768	; 0x8000
 8001916:	601a      	str	r2, [r3, #0]
 8001918:	f000 fafe 	bl	8001f18 <HAL_RCC_GetPCLK1Freq>
 800191c:	6863      	ldr	r3, [r4, #4]
 800191e:	4a41      	ldr	r2, [pc, #260]	; (8001a24 <HAL_I2C_Init+0x148>)
 8001920:	4293      	cmp	r3, r2
 8001922:	d84d      	bhi.n	80019c0 <HAL_I2C_Init+0xe4>
 8001924:	4a40      	ldr	r2, [pc, #256]	; (8001a28 <HAL_I2C_Init+0x14c>)
 8001926:	4290      	cmp	r0, r2
 8001928:	d9db      	bls.n	80018e2 <HAL_I2C_Init+0x6>
 800192a:	6822      	ldr	r2, [r4, #0]
 800192c:	493f      	ldr	r1, [pc, #252]	; (8001a2c <HAL_I2C_Init+0x150>)
 800192e:	6855      	ldr	r5, [r2, #4]
 8001930:	fbb0 f1f1 	udiv	r1, r0, r1
 8001934:	f025 053f 	bic.w	r5, r5, #63	; 0x3f
 8001938:	430d      	orrs	r5, r1
 800193a:	6055      	str	r5, [r2, #4]
 800193c:	6a15      	ldr	r5, [r2, #32]
 800193e:	f025 053f 	bic.w	r5, r5, #63	; 0x3f
 8001942:	3101      	adds	r1, #1
 8001944:	4329      	orrs	r1, r5
 8001946:	6211      	str	r1, [r2, #32]
 8001948:	69d1      	ldr	r1, [r2, #28]
 800194a:	4d36      	ldr	r5, [pc, #216]	; (8001a24 <HAL_I2C_Init+0x148>)
 800194c:	f421 414f 	bic.w	r1, r1, #52992	; 0xcf00
 8001950:	42ab      	cmp	r3, r5
 8001952:	f021 01ff 	bic.w	r1, r1, #255	; 0xff
 8001956:	f100 30ff 	add.w	r0, r0, #4294967295
 800195a:	d848      	bhi.n	80019ee <HAL_I2C_Init+0x112>
 800195c:	005b      	lsls	r3, r3, #1
 800195e:	fbb0 f0f3 	udiv	r0, r0, r3
 8001962:	1c43      	adds	r3, r0, #1
 8001964:	f3c3 030b 	ubfx	r3, r3, #0, #12
 8001968:	2b04      	cmp	r3, #4
 800196a:	bf38      	it	cc
 800196c:	2304      	movcc	r3, #4
 800196e:	430b      	orrs	r3, r1
 8001970:	61d3      	str	r3, [r2, #28]
 8001972:	e9d4 3007 	ldrd	r3, r0, [r4, #28]
 8001976:	6811      	ldr	r1, [r2, #0]
 8001978:	4303      	orrs	r3, r0
 800197a:	f021 01c0 	bic.w	r1, r1, #192	; 0xc0
 800197e:	430b      	orrs	r3, r1
 8001980:	6013      	str	r3, [r2, #0]
 8001982:	6891      	ldr	r1, [r2, #8]
 8001984:	e9d4 0303 	ldrd	r0, r3, [r4, #12]
 8001988:	f421 4103 	bic.w	r1, r1, #33536	; 0x8300
 800198c:	4303      	orrs	r3, r0
 800198e:	f021 01ff 	bic.w	r1, r1, #255	; 0xff
 8001992:	430b      	orrs	r3, r1
 8001994:	6093      	str	r3, [r2, #8]
 8001996:	e9d4 3005 	ldrd	r3, r0, [r4, #20]
 800199a:	68d1      	ldr	r1, [r2, #12]
 800199c:	4303      	orrs	r3, r0
 800199e:	f021 01ff 	bic.w	r1, r1, #255	; 0xff
 80019a2:	430b      	orrs	r3, r1
 80019a4:	60d3      	str	r3, [r2, #12]
 80019a6:	6813      	ldr	r3, [r2, #0]
 80019a8:	f043 0301 	orr.w	r3, r3, #1
 80019ac:	6013      	str	r3, [r2, #0]
 80019ae:	2000      	movs	r0, #0
 80019b0:	2320      	movs	r3, #32
 80019b2:	6420      	str	r0, [r4, #64]	; 0x40
 80019b4:	f884 303d 	strb.w	r3, [r4, #61]	; 0x3d
 80019b8:	6320      	str	r0, [r4, #48]	; 0x30
 80019ba:	f884 003e 	strb.w	r0, [r4, #62]	; 0x3e
 80019be:	e791      	b.n	80018e4 <HAL_I2C_Init+0x8>
 80019c0:	4a1b      	ldr	r2, [pc, #108]	; (8001a30 <HAL_I2C_Init+0x154>)
 80019c2:	4290      	cmp	r0, r2
 80019c4:	d98d      	bls.n	80018e2 <HAL_I2C_Init+0x6>
 80019c6:	6822      	ldr	r2, [r4, #0]
 80019c8:	4e18      	ldr	r6, [pc, #96]	; (8001a2c <HAL_I2C_Init+0x150>)
 80019ca:	6855      	ldr	r5, [r2, #4]
 80019cc:	fbb0 f6f6 	udiv	r6, r0, r6
 80019d0:	f025 053f 	bic.w	r5, r5, #63	; 0x3f
 80019d4:	4335      	orrs	r5, r6
 80019d6:	6055      	str	r5, [r2, #4]
 80019d8:	6a15      	ldr	r5, [r2, #32]
 80019da:	f44f 7196 	mov.w	r1, #300	; 0x12c
 80019de:	4371      	muls	r1, r6
 80019e0:	f025 053f 	bic.w	r5, r5, #63	; 0x3f
 80019e4:	f44f 767a 	mov.w	r6, #1000	; 0x3e8
 80019e8:	fbb1 f1f6 	udiv	r1, r1, r6
 80019ec:	e7a9      	b.n	8001942 <HAL_I2C_Init+0x66>
 80019ee:	68a5      	ldr	r5, [r4, #8]
 80019f0:	b955      	cbnz	r5, 8001a08 <HAL_I2C_Init+0x12c>
 80019f2:	eb03 0343 	add.w	r3, r3, r3, lsl #1
 80019f6:	fbb0 f0f3 	udiv	r0, r0, r3
 80019fa:	1c43      	adds	r3, r0, #1
 80019fc:	f3c3 030b 	ubfx	r3, r3, #0, #12
 8001a00:	b16b      	cbz	r3, 8001a1e <HAL_I2C_Init+0x142>
 8001a02:	f443 4300 	orr.w	r3, r3, #32768	; 0x8000
 8001a06:	e7b2      	b.n	800196e <HAL_I2C_Init+0x92>
 8001a08:	2519      	movs	r5, #25
 8001a0a:	436b      	muls	r3, r5
 8001a0c:	fbb0 f0f3 	udiv	r0, r0, r3
 8001a10:	1c43      	adds	r3, r0, #1
 8001a12:	f3c3 030b 	ubfx	r3, r3, #0, #12
 8001a16:	b113      	cbz	r3, 8001a1e <HAL_I2C_Init+0x142>
 8001a18:	f443 4340 	orr.w	r3, r3, #49152	; 0xc000
 8001a1c:	e7a7      	b.n	800196e <HAL_I2C_Init+0x92>
 8001a1e:	2301      	movs	r3, #1
 8001a20:	e7a5      	b.n	800196e <HAL_I2C_Init+0x92>
 8001a22:	bf00      	nop
 8001a24:	000186a0 	.word	0x000186a0
 8001a28:	001e847f 	.word	0x001e847f
 8001a2c:	000f4240 	.word	0x000f4240
 8001a30:	003d08ff 	.word	0x003d08ff

08001a34 <HAL_I2C_Mem_Write>:
 8001a34:	e92d 43f7 	stmdb	sp!, {r0, r1, r2, r4, r5, r6, r7, r8, r9, lr}
 8001a38:	4604      	mov	r4, r0
 8001a3a:	4699      	mov	r9, r3
 8001a3c:	460f      	mov	r7, r1
 8001a3e:	4690      	mov	r8, r2
 8001a40:	9e0c      	ldr	r6, [sp, #48]	; 0x30
 8001a42:	f7ff fa4d 	bl	8000ee0 <HAL_GetTick>
 8001a46:	f894 303d 	ldrb.w	r3, [r4, #61]	; 0x3d
 8001a4a:	2b20      	cmp	r3, #32
 8001a4c:	4605      	mov	r5, r0
 8001a4e:	d003      	beq.n	8001a58 <HAL_I2C_Mem_Write+0x24>
 8001a50:	2002      	movs	r0, #2
 8001a52:	b003      	add	sp, #12
 8001a54:	e8bd 83f0 	ldmia.w	sp!, {r4, r5, r6, r7, r8, r9, pc}
 8001a58:	9000      	str	r0, [sp, #0]
 8001a5a:	2319      	movs	r3, #25
 8001a5c:	2201      	movs	r2, #1
 8001a5e:	493b      	ldr	r1, [pc, #236]	; (8001b4c <HAL_I2C_Mem_Write+0x118>)
 8001a60:	4620      	mov	r0, r4
 8001a62:	f7ff fe0f 	bl	8001684 <I2C_WaitOnFlagUntilTimeout>
 8001a66:	2800      	cmp	r0, #0
 8001a68:	d1f2      	bne.n	8001a50 <HAL_I2C_Mem_Write+0x1c>
 8001a6a:	f894 303c 	ldrb.w	r3, [r4, #60]	; 0x3c
 8001a6e:	2b01      	cmp	r3, #1
 8001a70:	d0ee      	beq.n	8001a50 <HAL_I2C_Mem_Write+0x1c>
 8001a72:	2301      	movs	r3, #1
 8001a74:	f884 303c 	strb.w	r3, [r4, #60]	; 0x3c
 8001a78:	6823      	ldr	r3, [r4, #0]
 8001a7a:	681a      	ldr	r2, [r3, #0]
 8001a7c:	07d1      	lsls	r1, r2, #31
 8001a7e:	bf5e      	ittt	pl
 8001a80:	681a      	ldrpl	r2, [r3, #0]
 8001a82:	f042 0201 	orrpl.w	r2, r2, #1
 8001a86:	601a      	strpl	r2, [r3, #0]
 8001a88:	681a      	ldr	r2, [r3, #0]
 8001a8a:	f422 6200 	bic.w	r2, r2, #2048	; 0x800
 8001a8e:	601a      	str	r2, [r3, #0]
 8001a90:	2321      	movs	r3, #33	; 0x21
 8001a92:	f884 303d 	strb.w	r3, [r4, #61]	; 0x3d
 8001a96:	2340      	movs	r3, #64	; 0x40
 8001a98:	f884 303e 	strb.w	r3, [r4, #62]	; 0x3e
 8001a9c:	2300      	movs	r3, #0
 8001a9e:	6423      	str	r3, [r4, #64]	; 0x40
 8001aa0:	9b0a      	ldr	r3, [sp, #40]	; 0x28
 8001aa2:	6263      	str	r3, [r4, #36]	; 0x24
 8001aa4:	f8bd 302c 	ldrh.w	r3, [sp, #44]	; 0x2c
 8001aa8:	8563      	strh	r3, [r4, #42]	; 0x2a
 8001aaa:	8d63      	ldrh	r3, [r4, #42]	; 0x2a
 8001aac:	8523      	strh	r3, [r4, #40]	; 0x28
 8001aae:	4b28      	ldr	r3, [pc, #160]	; (8001b50 <HAL_I2C_Mem_Write+0x11c>)
 8001ab0:	62e3      	str	r3, [r4, #44]	; 0x2c
 8001ab2:	e9cd 6500 	strd	r6, r5, [sp]
 8001ab6:	464b      	mov	r3, r9
 8001ab8:	4642      	mov	r2, r8
 8001aba:	4639      	mov	r1, r7
 8001abc:	4620      	mov	r0, r4
 8001abe:	f7ff fe39 	bl	8001734 <I2C_RequestMemoryWrite>
 8001ac2:	2800      	cmp	r0, #0
 8001ac4:	d02a      	beq.n	8001b1c <HAL_I2C_Mem_Write+0xe8>
 8001ac6:	2001      	movs	r0, #1
 8001ac8:	e7c3      	b.n	8001a52 <HAL_I2C_Mem_Write+0x1e>
 8001aca:	f7ff fe0c 	bl	80016e6 <I2C_WaitOnTXEFlagUntilTimeout>
 8001ace:	b140      	cbz	r0, 8001ae2 <HAL_I2C_Mem_Write+0xae>
 8001ad0:	6c23      	ldr	r3, [r4, #64]	; 0x40
 8001ad2:	2b04      	cmp	r3, #4
 8001ad4:	bf01      	itttt	eq
 8001ad6:	6822      	ldreq	r2, [r4, #0]
 8001ad8:	6813      	ldreq	r3, [r2, #0]
 8001ada:	f443 7300 	orreq.w	r3, r3, #512	; 0x200
 8001ade:	6013      	streq	r3, [r2, #0]
 8001ae0:	e7f1      	b.n	8001ac6 <HAL_I2C_Mem_Write+0x92>
 8001ae2:	6a63      	ldr	r3, [r4, #36]	; 0x24
 8001ae4:	6827      	ldr	r7, [r4, #0]
 8001ae6:	461a      	mov	r2, r3
 8001ae8:	f812 1b01 	ldrb.w	r1, [r2], #1
 8001aec:	6139      	str	r1, [r7, #16]
 8001aee:	6262      	str	r2, [r4, #36]	; 0x24
 8001af0:	8d62      	ldrh	r2, [r4, #42]	; 0x2a
 8001af2:	8d21      	ldrh	r1, [r4, #40]	; 0x28
 8001af4:	3a01      	subs	r2, #1
 8001af6:	b292      	uxth	r2, r2
 8001af8:	8562      	strh	r2, [r4, #42]	; 0x2a
 8001afa:	697a      	ldr	r2, [r7, #20]
 8001afc:	1e48      	subs	r0, r1, #1
 8001afe:	b280      	uxth	r0, r0
 8001b00:	0752      	lsls	r2, r2, #29
 8001b02:	8520      	strh	r0, [r4, #40]	; 0x28
 8001b04:	d50a      	bpl.n	8001b1c <HAL_I2C_Mem_Write+0xe8>
 8001b06:	b148      	cbz	r0, 8001b1c <HAL_I2C_Mem_Write+0xe8>
 8001b08:	785a      	ldrb	r2, [r3, #1]
 8001b0a:	613a      	str	r2, [r7, #16]
 8001b0c:	3302      	adds	r3, #2
 8001b0e:	6263      	str	r3, [r4, #36]	; 0x24
 8001b10:	8d63      	ldrh	r3, [r4, #42]	; 0x2a
 8001b12:	3b01      	subs	r3, #1
 8001b14:	3902      	subs	r1, #2
 8001b16:	b29b      	uxth	r3, r3
 8001b18:	8521      	strh	r1, [r4, #40]	; 0x28
 8001b1a:	8563      	strh	r3, [r4, #42]	; 0x2a
 8001b1c:	8d23      	ldrh	r3, [r4, #40]	; 0x28
 8001b1e:	462a      	mov	r2, r5
 8001b20:	4631      	mov	r1, r6
 8001b22:	4620      	mov	r0, r4
 8001b24:	2b00      	cmp	r3, #0
 8001b26:	d1d0      	bne.n	8001aca <HAL_I2C_Mem_Write+0x96>
 8001b28:	f7ff fd57 	bl	80015da <I2C_WaitOnBTFFlagUntilTimeout>
 8001b2c:	2800      	cmp	r0, #0
 8001b2e:	d1cf      	bne.n	8001ad0 <HAL_I2C_Mem_Write+0x9c>
 8001b30:	6822      	ldr	r2, [r4, #0]
 8001b32:	6813      	ldr	r3, [r2, #0]
 8001b34:	f443 7300 	orr.w	r3, r3, #512	; 0x200
 8001b38:	6013      	str	r3, [r2, #0]
 8001b3a:	2320      	movs	r3, #32
 8001b3c:	f884 303d 	strb.w	r3, [r4, #61]	; 0x3d
 8001b40:	f884 003c 	strb.w	r0, [r4, #60]	; 0x3c
 8001b44:	f884 003e 	strb.w	r0, [r4, #62]	; 0x3e
 8001b48:	e783      	b.n	8001a52 <HAL_I2C_Mem_Write+0x1e>
 8001b4a:	bf00      	nop
 8001b4c:	00100002 	.word	0x00100002
 8001b50:	ffff0000 	.word	0xffff0000

08001b54 <HAL_I2C_Mem_Read>:
 8001b54:	e92d 43f0 	stmdb	sp!, {r4, r5, r6, r7, r8, r9, lr}
 8001b58:	4604      	mov	r4, r0
 8001b5a:	b087      	sub	sp, #28
 8001b5c:	4699      	mov	r9, r3
 8001b5e:	460d      	mov	r5, r1
 8001b60:	4690      	mov	r8, r2
 8001b62:	9f10      	ldr	r7, [sp, #64]	; 0x40
 8001b64:	f7ff f9bc 	bl	8000ee0 <HAL_GetTick>
 8001b68:	f894 303d 	ldrb.w	r3, [r4, #61]	; 0x3d
 8001b6c:	2b20      	cmp	r3, #32
 8001b6e:	4606      	mov	r6, r0
 8001b70:	d004      	beq.n	8001b7c <HAL_I2C_Mem_Read+0x28>
 8001b72:	2502      	movs	r5, #2
 8001b74:	4628      	mov	r0, r5
 8001b76:	b007      	add	sp, #28
 8001b78:	e8bd 83f0 	ldmia.w	sp!, {r4, r5, r6, r7, r8, r9, pc}
 8001b7c:	9000      	str	r0, [sp, #0]
 8001b7e:	2319      	movs	r3, #25
 8001b80:	2201      	movs	r2, #1
 8001b82:	4977      	ldr	r1, [pc, #476]	; (8001d60 <HAL_I2C_Mem_Read+0x20c>)
 8001b84:	4620      	mov	r0, r4
 8001b86:	f7ff fd7d 	bl	8001684 <I2C_WaitOnFlagUntilTimeout>
 8001b8a:	2800      	cmp	r0, #0
 8001b8c:	d1f1      	bne.n	8001b72 <HAL_I2C_Mem_Read+0x1e>
 8001b8e:	f894 303c 	ldrb.w	r3, [r4, #60]	; 0x3c
 8001b92:	2b01      	cmp	r3, #1
 8001b94:	d0ed      	beq.n	8001b72 <HAL_I2C_Mem_Read+0x1e>
 8001b96:	2301      	movs	r3, #1
 8001b98:	f884 303c 	strb.w	r3, [r4, #60]	; 0x3c
 8001b9c:	6823      	ldr	r3, [r4, #0]
 8001b9e:	681a      	ldr	r2, [r3, #0]
 8001ba0:	07d0      	lsls	r0, r2, #31
 8001ba2:	bf5e      	ittt	pl
 8001ba4:	681a      	ldrpl	r2, [r3, #0]
 8001ba6:	f042 0201 	orrpl.w	r2, r2, #1
 8001baa:	601a      	strpl	r2, [r3, #0]
 8001bac:	681a      	ldr	r2, [r3, #0]
 8001bae:	f422 6200 	bic.w	r2, r2, #2048	; 0x800
 8001bb2:	601a      	str	r2, [r3, #0]
 8001bb4:	2322      	movs	r3, #34	; 0x22
 8001bb6:	f884 303d 	strb.w	r3, [r4, #61]	; 0x3d
 8001bba:	2340      	movs	r3, #64	; 0x40
 8001bbc:	f884 303e 	strb.w	r3, [r4, #62]	; 0x3e
 8001bc0:	2300      	movs	r3, #0
 8001bc2:	6423      	str	r3, [r4, #64]	; 0x40
 8001bc4:	9b0e      	ldr	r3, [sp, #56]	; 0x38
 8001bc6:	6263      	str	r3, [r4, #36]	; 0x24
 8001bc8:	f8bd 303c 	ldrh.w	r3, [sp, #60]	; 0x3c
 8001bcc:	8563      	strh	r3, [r4, #42]	; 0x2a
 8001bce:	8d63      	ldrh	r3, [r4, #42]	; 0x2a
 8001bd0:	8523      	strh	r3, [r4, #40]	; 0x28
 8001bd2:	4b64      	ldr	r3, [pc, #400]	; (8001d64 <HAL_I2C_Mem_Read+0x210>)
 8001bd4:	62e3      	str	r3, [r4, #44]	; 0x2c
 8001bd6:	4629      	mov	r1, r5
 8001bd8:	e9cd 7600 	strd	r7, r6, [sp]
 8001bdc:	464b      	mov	r3, r9
 8001bde:	4642      	mov	r2, r8
 8001be0:	4620      	mov	r0, r4
 8001be2:	f7ff fdfd 	bl	80017e0 <I2C_RequestMemoryRead>
 8001be6:	4605      	mov	r5, r0
 8001be8:	b108      	cbz	r0, 8001bee <HAL_I2C_Mem_Read+0x9a>
 8001bea:	2501      	movs	r5, #1
 8001bec:	e7c2      	b.n	8001b74 <HAL_I2C_Mem_Read+0x20>
 8001bee:	8d22      	ldrh	r2, [r4, #40]	; 0x28
 8001bf0:	6823      	ldr	r3, [r4, #0]
 8001bf2:	b992      	cbnz	r2, 8001c1a <HAL_I2C_Mem_Read+0xc6>
 8001bf4:	9002      	str	r0, [sp, #8]
 8001bf6:	695a      	ldr	r2, [r3, #20]
 8001bf8:	9202      	str	r2, [sp, #8]
 8001bfa:	699a      	ldr	r2, [r3, #24]
 8001bfc:	9202      	str	r2, [sp, #8]
 8001bfe:	9a02      	ldr	r2, [sp, #8]
 8001c00:	681a      	ldr	r2, [r3, #0]
 8001c02:	f442 7200 	orr.w	r2, r2, #512	; 0x200
 8001c06:	601a      	str	r2, [r3, #0]
 8001c08:	2320      	movs	r3, #32
 8001c0a:	f884 303d 	strb.w	r3, [r4, #61]	; 0x3d
 8001c0e:	2300      	movs	r3, #0
 8001c10:	f884 303e 	strb.w	r3, [r4, #62]	; 0x3e
 8001c14:	f884 303c 	strb.w	r3, [r4, #60]	; 0x3c
 8001c18:	e7ac      	b.n	8001b74 <HAL_I2C_Mem_Read+0x20>
 8001c1a:	2a01      	cmp	r2, #1
 8001c1c:	d12c      	bne.n	8001c78 <HAL_I2C_Mem_Read+0x124>
 8001c1e:	681a      	ldr	r2, [r3, #0]
 8001c20:	f422 6280 	bic.w	r2, r2, #1024	; 0x400
 8001c24:	601a      	str	r2, [r3, #0]
 8001c26:	9003      	str	r0, [sp, #12]
 8001c28:	695a      	ldr	r2, [r3, #20]
 8001c2a:	9203      	str	r2, [sp, #12]
 8001c2c:	699a      	ldr	r2, [r3, #24]
 8001c2e:	9203      	str	r2, [sp, #12]
 8001c30:	9a03      	ldr	r2, [sp, #12]
 8001c32:	681a      	ldr	r2, [r3, #0]
 8001c34:	f442 7200 	orr.w	r2, r2, #512	; 0x200
 8001c38:	601a      	str	r2, [r3, #0]
 8001c3a:	f8df 812c 	ldr.w	r8, [pc, #300]	; 8001d68 <HAL_I2C_Mem_Read+0x214>
 8001c3e:	8d23      	ldrh	r3, [r4, #40]	; 0x28
 8001c40:	2b00      	cmp	r3, #0
 8001c42:	d0e1      	beq.n	8001c08 <HAL_I2C_Mem_Read+0xb4>
 8001c44:	2b03      	cmp	r3, #3
 8001c46:	d86e      	bhi.n	8001d26 <HAL_I2C_Mem_Read+0x1d2>
 8001c48:	2b01      	cmp	r3, #1
 8001c4a:	d12d      	bne.n	8001ca8 <HAL_I2C_Mem_Read+0x154>
 8001c4c:	4632      	mov	r2, r6
 8001c4e:	4639      	mov	r1, r7
 8001c50:	4620      	mov	r0, r4
 8001c52:	f7ff fce8 	bl	8001626 <I2C_WaitOnRXNEFlagUntilTimeout>
 8001c56:	2800      	cmp	r0, #0
 8001c58:	d1c7      	bne.n	8001bea <HAL_I2C_Mem_Read+0x96>
 8001c5a:	6823      	ldr	r3, [r4, #0]
 8001c5c:	691a      	ldr	r2, [r3, #16]
 8001c5e:	6a63      	ldr	r3, [r4, #36]	; 0x24
 8001c60:	701a      	strb	r2, [r3, #0]
 8001c62:	6a63      	ldr	r3, [r4, #36]	; 0x24
 8001c64:	3301      	adds	r3, #1
 8001c66:	6263      	str	r3, [r4, #36]	; 0x24
 8001c68:	8d23      	ldrh	r3, [r4, #40]	; 0x28
 8001c6a:	3b01      	subs	r3, #1
 8001c6c:	8523      	strh	r3, [r4, #40]	; 0x28
 8001c6e:	8d63      	ldrh	r3, [r4, #42]	; 0x2a
 8001c70:	3b01      	subs	r3, #1
 8001c72:	b29b      	uxth	r3, r3
 8001c74:	8563      	strh	r3, [r4, #42]	; 0x2a
 8001c76:	e7e2      	b.n	8001c3e <HAL_I2C_Mem_Read+0xea>
 8001c78:	2a02      	cmp	r2, #2
 8001c7a:	d10e      	bne.n	8001c9a <HAL_I2C_Mem_Read+0x146>
 8001c7c:	681a      	ldr	r2, [r3, #0]
 8001c7e:	f422 6280 	bic.w	r2, r2, #1024	; 0x400
 8001c82:	601a      	str	r2, [r3, #0]
 8001c84:	681a      	ldr	r2, [r3, #0]
 8001c86:	f442 6200 	orr.w	r2, r2, #2048	; 0x800
 8001c8a:	601a      	str	r2, [r3, #0]
 8001c8c:	9004      	str	r0, [sp, #16]
 8001c8e:	695a      	ldr	r2, [r3, #20]
 8001c90:	9204      	str	r2, [sp, #16]
 8001c92:	699b      	ldr	r3, [r3, #24]
 8001c94:	9304      	str	r3, [sp, #16]
 8001c96:	9b04      	ldr	r3, [sp, #16]
 8001c98:	e7cf      	b.n	8001c3a <HAL_I2C_Mem_Read+0xe6>
 8001c9a:	9005      	str	r0, [sp, #20]
 8001c9c:	695a      	ldr	r2, [r3, #20]
 8001c9e:	9205      	str	r2, [sp, #20]
 8001ca0:	699b      	ldr	r3, [r3, #24]
 8001ca2:	9305      	str	r3, [sp, #20]
 8001ca4:	9b05      	ldr	r3, [sp, #20]
 8001ca6:	e7c8      	b.n	8001c3a <HAL_I2C_Mem_Read+0xe6>
 8001ca8:	2b02      	cmp	r3, #2
 8001caa:	9600      	str	r6, [sp, #0]
 8001cac:	463b      	mov	r3, r7
 8001cae:	f04f 0200 	mov.w	r2, #0
 8001cb2:	4641      	mov	r1, r8
 8001cb4:	4620      	mov	r0, r4
 8001cb6:	d119      	bne.n	8001cec <HAL_I2C_Mem_Read+0x198>
 8001cb8:	f7ff fce4 	bl	8001684 <I2C_WaitOnFlagUntilTimeout>
 8001cbc:	2800      	cmp	r0, #0
 8001cbe:	d194      	bne.n	8001bea <HAL_I2C_Mem_Read+0x96>
 8001cc0:	6823      	ldr	r3, [r4, #0]
 8001cc2:	681a      	ldr	r2, [r3, #0]
 8001cc4:	f442 7200 	orr.w	r2, r2, #512	; 0x200
 8001cc8:	601a      	str	r2, [r3, #0]
 8001cca:	691a      	ldr	r2, [r3, #16]
 8001ccc:	6a63      	ldr	r3, [r4, #36]	; 0x24
 8001cce:	701a      	strb	r2, [r3, #0]
 8001cd0:	6a62      	ldr	r2, [r4, #36]	; 0x24
 8001cd2:	1c53      	adds	r3, r2, #1
 8001cd4:	6263      	str	r3, [r4, #36]	; 0x24
 8001cd6:	8d23      	ldrh	r3, [r4, #40]	; 0x28
 8001cd8:	3b01      	subs	r3, #1
 8001cda:	8523      	strh	r3, [r4, #40]	; 0x28
 8001cdc:	8d63      	ldrh	r3, [r4, #42]	; 0x2a
 8001cde:	3b01      	subs	r3, #1
 8001ce0:	b29b      	uxth	r3, r3
 8001ce2:	8563      	strh	r3, [r4, #42]	; 0x2a
 8001ce4:	6823      	ldr	r3, [r4, #0]
 8001ce6:	691b      	ldr	r3, [r3, #16]
 8001ce8:	7053      	strb	r3, [r2, #1]
 8001cea:	e7ba      	b.n	8001c62 <HAL_I2C_Mem_Read+0x10e>
 8001cec:	f7ff fcca 	bl	8001684 <I2C_WaitOnFlagUntilTimeout>
 8001cf0:	4602      	mov	r2, r0
 8001cf2:	2800      	cmp	r0, #0
 8001cf4:	f47f af79 	bne.w	8001bea <HAL_I2C_Mem_Read+0x96>
 8001cf8:	6823      	ldr	r3, [r4, #0]
 8001cfa:	6819      	ldr	r1, [r3, #0]
 8001cfc:	f421 6180 	bic.w	r1, r1, #1024	; 0x400
 8001d00:	6019      	str	r1, [r3, #0]
 8001d02:	6919      	ldr	r1, [r3, #16]
 8001d04:	6a63      	ldr	r3, [r4, #36]	; 0x24
 8001d06:	7019      	strb	r1, [r3, #0]
 8001d08:	6a63      	ldr	r3, [r4, #36]	; 0x24
 8001d0a:	9600      	str	r6, [sp, #0]
 8001d0c:	3301      	adds	r3, #1
 8001d0e:	6263      	str	r3, [r4, #36]	; 0x24
 8001d10:	8d23      	ldrh	r3, [r4, #40]	; 0x28
 8001d12:	3b01      	subs	r3, #1
 8001d14:	8523      	strh	r3, [r4, #40]	; 0x28
 8001d16:	8d63      	ldrh	r3, [r4, #42]	; 0x2a
 8001d18:	3b01      	subs	r3, #1
 8001d1a:	b29b      	uxth	r3, r3
 8001d1c:	8563      	strh	r3, [r4, #42]	; 0x2a
 8001d1e:	4641      	mov	r1, r8
 8001d20:	463b      	mov	r3, r7
 8001d22:	4620      	mov	r0, r4
 8001d24:	e7c8      	b.n	8001cb8 <HAL_I2C_Mem_Read+0x164>
 8001d26:	4632      	mov	r2, r6
 8001d28:	4639      	mov	r1, r7
 8001d2a:	4620      	mov	r0, r4
 8001d2c:	f7ff fc7b 	bl	8001626 <I2C_WaitOnRXNEFlagUntilTimeout>
 8001d30:	2800      	cmp	r0, #0
 8001d32:	f47f af5a 	bne.w	8001bea <HAL_I2C_Mem_Read+0x96>
 8001d36:	6823      	ldr	r3, [r4, #0]
 8001d38:	691a      	ldr	r2, [r3, #16]
 8001d3a:	6a63      	ldr	r3, [r4, #36]	; 0x24
 8001d3c:	701a      	strb	r2, [r3, #0]
 8001d3e:	6a62      	ldr	r2, [r4, #36]	; 0x24
 8001d40:	1c53      	adds	r3, r2, #1
 8001d42:	6263      	str	r3, [r4, #36]	; 0x24
 8001d44:	8d23      	ldrh	r3, [r4, #40]	; 0x28
 8001d46:	3b01      	subs	r3, #1
 8001d48:	8523      	strh	r3, [r4, #40]	; 0x28
 8001d4a:	8d63      	ldrh	r3, [r4, #42]	; 0x2a
 8001d4c:	3b01      	subs	r3, #1
 8001d4e:	b29b      	uxth	r3, r3
 8001d50:	8563      	strh	r3, [r4, #42]	; 0x2a
 8001d52:	6823      	ldr	r3, [r4, #0]
 8001d54:	6959      	ldr	r1, [r3, #20]
 8001d56:	0749      	lsls	r1, r1, #29
 8001d58:	f57f af71 	bpl.w	8001c3e <HAL_I2C_Mem_Read+0xea>
 8001d5c:	e7c3      	b.n	8001ce6 <HAL_I2C_Mem_Read+0x192>
 8001d5e:	bf00      	nop
 8001d60:	00100002 	.word	0x00100002
 8001d64:	ffff0000 	.word	0xffff0000
 8001d68:	00010004 	.word	0x00010004

08001d6c <HAL_PWREx_EnableOverDrive>:
 8001d6c:	b537      	push	{r0, r1, r2, r4, r5, lr}
 8001d6e:	2300      	movs	r3, #0
 8001d70:	9301      	str	r3, [sp, #4]
 8001d72:	4b18      	ldr	r3, [pc, #96]	; (8001dd4 <HAL_PWREx_EnableOverDrive+0x68>)
 8001d74:	4c18      	ldr	r4, [pc, #96]	; (8001dd8 <HAL_PWREx_EnableOverDrive+0x6c>)
 8001d76:	6c1a      	ldr	r2, [r3, #64]	; 0x40
 8001d78:	f042 5280 	orr.w	r2, r2, #268435456	; 0x10000000
 8001d7c:	641a      	str	r2, [r3, #64]	; 0x40
 8001d7e:	6c1b      	ldr	r3, [r3, #64]	; 0x40
 8001d80:	f003 5380 	and.w	r3, r3, #268435456	; 0x10000000
 8001d84:	9301      	str	r3, [sp, #4]
 8001d86:	9b01      	ldr	r3, [sp, #4]
 8001d88:	4b14      	ldr	r3, [pc, #80]	; (8001ddc <HAL_PWREx_EnableOverDrive+0x70>)
 8001d8a:	2201      	movs	r2, #1
 8001d8c:	601a      	str	r2, [r3, #0]
 8001d8e:	f7ff f8a7 	bl	8000ee0 <HAL_GetTick>
 8001d92:	4605      	mov	r5, r0
 8001d94:	6863      	ldr	r3, [r4, #4]
 8001d96:	03da      	lsls	r2, r3, #15
 8001d98:	d50b      	bpl.n	8001db2 <HAL_PWREx_EnableOverDrive+0x46>
 8001d9a:	4b11      	ldr	r3, [pc, #68]	; (8001de0 <HAL_PWREx_EnableOverDrive+0x74>)
 8001d9c:	4c0e      	ldr	r4, [pc, #56]	; (8001dd8 <HAL_PWREx_EnableOverDrive+0x6c>)
 8001d9e:	2201      	movs	r2, #1
 8001da0:	601a      	str	r2, [r3, #0]
 8001da2:	f7ff f89d 	bl	8000ee0 <HAL_GetTick>
 8001da6:	4605      	mov	r5, r0
 8001da8:	6863      	ldr	r3, [r4, #4]
 8001daa:	039b      	lsls	r3, r3, #14
 8001dac:	d50a      	bpl.n	8001dc4 <HAL_PWREx_EnableOverDrive+0x58>
 8001dae:	2000      	movs	r0, #0
 8001db0:	e006      	b.n	8001dc0 <HAL_PWREx_EnableOverDrive+0x54>
 8001db2:	f7ff f895 	bl	8000ee0 <HAL_GetTick>
 8001db6:	1b40      	subs	r0, r0, r5
 8001db8:	f5b0 7f7a 	cmp.w	r0, #1000	; 0x3e8
 8001dbc:	d9ea      	bls.n	8001d94 <HAL_PWREx_EnableOverDrive+0x28>
 8001dbe:	2003      	movs	r0, #3
 8001dc0:	b003      	add	sp, #12
 8001dc2:	bd30      	pop	{r4, r5, pc}
 8001dc4:	f7ff f88c 	bl	8000ee0 <HAL_GetTick>
 8001dc8:	1b40      	subs	r0, r0, r5
 8001dca:	f5b0 7f7a 	cmp.w	r0, #1000	; 0x3e8
 8001dce:	d9eb      	bls.n	8001da8 <HAL_PWREx_EnableOverDrive+0x3c>
 8001dd0:	e7f5      	b.n	8001dbe <HAL_PWREx_EnableOverDrive+0x52>
 8001dd2:	bf00      	nop
 8001dd4:	40023800 	.word	0x40023800
 8001dd8:	40007000 	.word	0x40007000
 8001ddc:	420e0040 	.word	0x420e0040
 8001de0:	420e0044 	.word	0x420e0044

08001de4 <HAL_RCC_ClockConfig>:
 8001de4:	e92d 41f0 	stmdb	sp!, {r4, r5, r6, r7, r8, lr}
 8001de8:	460d      	mov	r5, r1
 8001dea:	4604      	mov	r4, r0
 8001dec:	b910      	cbnz	r0, 8001df4 <HAL_RCC_ClockConfig+0x10>
 8001dee:	2001      	movs	r0, #1
 8001df0:	e8bd 81f0 	ldmia.w	sp!, {r4, r5, r6, r7, r8, pc}
 8001df4:	4b43      	ldr	r3, [pc, #268]	; (8001f04 <HAL_RCC_ClockConfig+0x120>)
 8001df6:	681a      	ldr	r2, [r3, #0]
 8001df8:	f002 020f 	and.w	r2, r2, #15
 8001dfc:	428a      	cmp	r2, r1
 8001dfe:	d328      	bcc.n	8001e52 <HAL_RCC_ClockConfig+0x6e>
 8001e00:	6821      	ldr	r1, [r4, #0]
 8001e02:	078f      	lsls	r7, r1, #30
 8001e04:	d42d      	bmi.n	8001e62 <HAL_RCC_ClockConfig+0x7e>
 8001e06:	07c8      	lsls	r0, r1, #31
 8001e08:	d440      	bmi.n	8001e8c <HAL_RCC_ClockConfig+0xa8>
 8001e0a:	4b3e      	ldr	r3, [pc, #248]	; (8001f04 <HAL_RCC_ClockConfig+0x120>)
 8001e0c:	681a      	ldr	r2, [r3, #0]
 8001e0e:	f002 020f 	and.w	r2, r2, #15
 8001e12:	42aa      	cmp	r2, r5
 8001e14:	d865      	bhi.n	8001ee2 <HAL_RCC_ClockConfig+0xfe>
 8001e16:	6822      	ldr	r2, [r4, #0]
 8001e18:	0751      	lsls	r1, r2, #29
 8001e1a:	d46b      	bmi.n	8001ef4 <HAL_RCC_ClockConfig+0x110>
 8001e1c:	0713      	lsls	r3, r2, #28
 8001e1e:	d507      	bpl.n	8001e30 <HAL_RCC_ClockConfig+0x4c>
 8001e20:	4a39      	ldr	r2, [pc, #228]	; (8001f08 <HAL_RCC_ClockConfig+0x124>)
 8001e22:	6921      	ldr	r1, [r4, #16]
 8001e24:	6893      	ldr	r3, [r2, #8]
 8001e26:	f423 4360 	bic.w	r3, r3, #57344	; 0xe000
 8001e2a:	ea43 03c1 	orr.w	r3, r3, r1, lsl #3
 8001e2e:	6093      	str	r3, [r2, #8]
 8001e30:	f000 f892 	bl	8001f58 <HAL_RCC_GetSysClockFreq>
 8001e34:	4b34      	ldr	r3, [pc, #208]	; (8001f08 <HAL_RCC_ClockConfig+0x124>)
 8001e36:	4a35      	ldr	r2, [pc, #212]	; (8001f0c <HAL_RCC_ClockConfig+0x128>)
 8001e38:	689b      	ldr	r3, [r3, #8]
 8001e3a:	f3c3 1303 	ubfx	r3, r3, #4, #4
 8001e3e:	5cd3      	ldrb	r3, [r2, r3]
 8001e40:	40d8      	lsrs	r0, r3
 8001e42:	4b33      	ldr	r3, [pc, #204]	; (8001f10 <HAL_RCC_ClockConfig+0x12c>)
 8001e44:	6018      	str	r0, [r3, #0]
 8001e46:	4b33      	ldr	r3, [pc, #204]	; (8001f14 <HAL_RCC_ClockConfig+0x130>)
 8001e48:	6818      	ldr	r0, [r3, #0]
 8001e4a:	f7fe ffff 	bl	8000e4c <HAL_InitTick>
 8001e4e:	2000      	movs	r0, #0
 8001e50:	e7ce      	b.n	8001df0 <HAL_RCC_ClockConfig+0xc>
 8001e52:	b2ca      	uxtb	r2, r1
 8001e54:	701a      	strb	r2, [r3, #0]
 8001e56:	681b      	ldr	r3, [r3, #0]
 8001e58:	f003 030f 	and.w	r3, r3, #15
 8001e5c:	428b      	cmp	r3, r1
 8001e5e:	d1c6      	bne.n	8001dee <HAL_RCC_ClockConfig+0xa>
 8001e60:	e7ce      	b.n	8001e00 <HAL_RCC_ClockConfig+0x1c>
 8001e62:	4b29      	ldr	r3, [pc, #164]	; (8001f08 <HAL_RCC_ClockConfig+0x124>)
 8001e64:	f011 0f04 	tst.w	r1, #4
 8001e68:	bf1e      	ittt	ne
 8001e6a:	689a      	ldrne	r2, [r3, #8]
 8001e6c:	f442 52e0 	orrne.w	r2, r2, #7168	; 0x1c00
 8001e70:	609a      	strne	r2, [r3, #8]
 8001e72:	070e      	lsls	r6, r1, #28
 8001e74:	bf42      	ittt	mi
 8001e76:	689a      	ldrmi	r2, [r3, #8]
 8001e78:	f442 4260 	orrmi.w	r2, r2, #57344	; 0xe000
 8001e7c:	609a      	strmi	r2, [r3, #8]
 8001e7e:	689a      	ldr	r2, [r3, #8]
 8001e80:	68a0      	ldr	r0, [r4, #8]
 8001e82:	f022 02f0 	bic.w	r2, r2, #240	; 0xf0
 8001e86:	4302      	orrs	r2, r0
 8001e88:	609a      	str	r2, [r3, #8]
 8001e8a:	e7bc      	b.n	8001e06 <HAL_RCC_ClockConfig+0x22>
 8001e8c:	6862      	ldr	r2, [r4, #4]
 8001e8e:	4b1e      	ldr	r3, [pc, #120]	; (8001f08 <HAL_RCC_ClockConfig+0x124>)
 8001e90:	2a01      	cmp	r2, #1
 8001e92:	d11c      	bne.n	8001ece <HAL_RCC_ClockConfig+0xea>
 8001e94:	681b      	ldr	r3, [r3, #0]
 8001e96:	f413 3f00 	tst.w	r3, #131072	; 0x20000
 8001e9a:	d0a8      	beq.n	8001dee <HAL_RCC_ClockConfig+0xa>
 8001e9c:	4e1a      	ldr	r6, [pc, #104]	; (8001f08 <HAL_RCC_ClockConfig+0x124>)
 8001e9e:	68b3      	ldr	r3, [r6, #8]
 8001ea0:	f023 0303 	bic.w	r3, r3, #3
 8001ea4:	4313      	orrs	r3, r2
 8001ea6:	60b3      	str	r3, [r6, #8]
 8001ea8:	f7ff f81a 	bl	8000ee0 <HAL_GetTick>
 8001eac:	f241 3888 	movw	r8, #5000	; 0x1388
 8001eb0:	4607      	mov	r7, r0
 8001eb2:	68b3      	ldr	r3, [r6, #8]
 8001eb4:	6862      	ldr	r2, [r4, #4]
 8001eb6:	f003 030c 	and.w	r3, r3, #12
 8001eba:	ebb3 0f82 	cmp.w	r3, r2, lsl #2
 8001ebe:	d0a4      	beq.n	8001e0a <HAL_RCC_ClockConfig+0x26>
 8001ec0:	f7ff f80e 	bl	8000ee0 <HAL_GetTick>
 8001ec4:	1bc0      	subs	r0, r0, r7
 8001ec6:	4540      	cmp	r0, r8
 8001ec8:	d9f3      	bls.n	8001eb2 <HAL_RCC_ClockConfig+0xce>
 8001eca:	2003      	movs	r0, #3
 8001ecc:	e790      	b.n	8001df0 <HAL_RCC_ClockConfig+0xc>
 8001ece:	1e91      	subs	r1, r2, #2
 8001ed0:	2901      	cmp	r1, #1
 8001ed2:	681b      	ldr	r3, [r3, #0]
 8001ed4:	d802      	bhi.n	8001edc <HAL_RCC_ClockConfig+0xf8>
 8001ed6:	f013 7f00 	tst.w	r3, #33554432	; 0x2000000
 8001eda:	e7de      	b.n	8001e9a <HAL_RCC_ClockConfig+0xb6>
 8001edc:	f013 0f02 	tst.w	r3, #2
 8001ee0:	e7db      	b.n	8001e9a <HAL_RCC_ClockConfig+0xb6>
 8001ee2:	b2ea      	uxtb	r2, r5
 8001ee4:	701a      	strb	r2, [r3, #0]
 8001ee6:	681b      	ldr	r3, [r3, #0]
 8001ee8:	f003 030f 	and.w	r3, r3, #15
 8001eec:	42ab      	cmp	r3, r5
 8001eee:	f47f af7e 	bne.w	8001dee <HAL_RCC_ClockConfig+0xa>
 8001ef2:	e790      	b.n	8001e16 <HAL_RCC_ClockConfig+0x32>
 8001ef4:	4904      	ldr	r1, [pc, #16]	; (8001f08 <HAL_RCC_ClockConfig+0x124>)
 8001ef6:	68e0      	ldr	r0, [r4, #12]
 8001ef8:	688b      	ldr	r3, [r1, #8]
 8001efa:	f423 53e0 	bic.w	r3, r3, #7168	; 0x1c00
 8001efe:	4303      	orrs	r3, r0
 8001f00:	608b      	str	r3, [r1, #8]
 8001f02:	e78b      	b.n	8001e1c <HAL_RCC_ClockConfig+0x38>
 8001f04:	40023c00 	.word	0x40023c00
 8001f08:	40023800 	.word	0x40023800
 8001f0c:	0800342a 	.word	0x0800342a
 8001f10:	20000004 	.word	0x20000004
 8001f14:	2000000c 	.word	0x2000000c

08001f18 <HAL_RCC_GetPCLK1Freq>:
 8001f18:	4b04      	ldr	r3, [pc, #16]	; (8001f2c <HAL_RCC_GetPCLK1Freq+0x14>)
 8001f1a:	4a05      	ldr	r2, [pc, #20]	; (8001f30 <HAL_RCC_GetPCLK1Freq+0x18>)
 8001f1c:	689b      	ldr	r3, [r3, #8]
 8001f1e:	f3c3 2382 	ubfx	r3, r3, #10, #3
 8001f22:	5cd3      	ldrb	r3, [r2, r3]
 8001f24:	4a03      	ldr	r2, [pc, #12]	; (8001f34 <HAL_RCC_GetPCLK1Freq+0x1c>)
 8001f26:	6810      	ldr	r0, [r2, #0]
 8001f28:	40d8      	lsrs	r0, r3
 8001f2a:	4770      	bx	lr
 8001f2c:	40023800 	.word	0x40023800
 8001f30:	0800343a 	.word	0x0800343a
 8001f34:	20000004 	.word	0x20000004

08001f38 <HAL_RCC_GetPCLK2Freq>:
 8001f38:	4b04      	ldr	r3, [pc, #16]	; (8001f4c <HAL_RCC_GetPCLK2Freq+0x14>)
 8001f3a:	4a05      	ldr	r2, [pc, #20]	; (8001f50 <HAL_RCC_GetPCLK2Freq+0x18>)
 8001f3c:	689b      	ldr	r3, [r3, #8]
 8001f3e:	f3c3 3342 	ubfx	r3, r3, #13, #3
 8001f42:	5cd3      	ldrb	r3, [r2, r3]
 8001f44:	4a03      	ldr	r2, [pc, #12]	; (8001f54 <HAL_RCC_GetPCLK2Freq+0x1c>)
 8001f46:	6810      	ldr	r0, [r2, #0]
 8001f48:	40d8      	lsrs	r0, r3
 8001f4a:	4770      	bx	lr
 8001f4c:	40023800 	.word	0x40023800
 8001f50:	0800343a 	.word	0x0800343a
 8001f54:	20000004 	.word	0x20000004

08001f58 <HAL_RCC_GetSysClockFreq>:
 8001f58:	4920      	ldr	r1, [pc, #128]	; (8001fdc <HAL_RCC_GetSysClockFreq+0x84>)
 8001f5a:	b508      	push	{r3, lr}
 8001f5c:	688b      	ldr	r3, [r1, #8]
 8001f5e:	f003 030c 	and.w	r3, r3, #12
 8001f62:	2b08      	cmp	r3, #8
 8001f64:	d007      	beq.n	8001f76 <HAL_RCC_GetSysClockFreq+0x1e>
 8001f66:	2b0c      	cmp	r3, #12
 8001f68:	d020      	beq.n	8001fac <HAL_RCC_GetSysClockFreq+0x54>
 8001f6a:	481d      	ldr	r0, [pc, #116]	; (8001fe0 <HAL_RCC_GetSysClockFreq+0x88>)
 8001f6c:	4a1d      	ldr	r2, [pc, #116]	; (8001fe4 <HAL_RCC_GetSysClockFreq+0x8c>)
 8001f6e:	2b04      	cmp	r3, #4
 8001f70:	bf18      	it	ne
 8001f72:	4610      	movne	r0, r2
 8001f74:	bd08      	pop	{r3, pc}
 8001f76:	684a      	ldr	r2, [r1, #4]
 8001f78:	684b      	ldr	r3, [r1, #4]
 8001f7a:	6849      	ldr	r1, [r1, #4]
 8001f7c:	f413 0380 	ands.w	r3, r3, #4194304	; 0x400000
 8001f80:	bf14      	ite	ne
 8001f82:	4817      	ldrne	r0, [pc, #92]	; (8001fe0 <HAL_RCC_GetSysClockFreq+0x88>)
 8001f84:	4817      	ldreq	r0, [pc, #92]	; (8001fe4 <HAL_RCC_GetSysClockFreq+0x8c>)
 8001f86:	f3c1 1188 	ubfx	r1, r1, #6, #9
 8001f8a:	bf18      	it	ne
 8001f8c:	2300      	movne	r3, #0
 8001f8e:	f002 023f 	and.w	r2, r2, #63	; 0x3f
 8001f92:	fba1 0100 	umull	r0, r1, r1, r0
 8001f96:	f7fe f98b 	bl	80002b0 <__aeabi_uldivmod>
 8001f9a:	4b10      	ldr	r3, [pc, #64]	; (8001fdc <HAL_RCC_GetSysClockFreq+0x84>)
 8001f9c:	685b      	ldr	r3, [r3, #4]
 8001f9e:	f3c3 4301 	ubfx	r3, r3, #16, #2
 8001fa2:	3301      	adds	r3, #1
 8001fa4:	005b      	lsls	r3, r3, #1
 8001fa6:	fbb0 f0f3 	udiv	r0, r0, r3
 8001faa:	e7e3      	b.n	8001f74 <HAL_RCC_GetSysClockFreq+0x1c>
 8001fac:	684a      	ldr	r2, [r1, #4]
 8001fae:	684b      	ldr	r3, [r1, #4]
 8001fb0:	6849      	ldr	r1, [r1, #4]
 8001fb2:	f413 0380 	ands.w	r3, r3, #4194304	; 0x400000
 8001fb6:	bf14      	ite	ne
 8001fb8:	4809      	ldrne	r0, [pc, #36]	; (8001fe0 <HAL_RCC_GetSysClockFreq+0x88>)
 8001fba:	480a      	ldreq	r0, [pc, #40]	; (8001fe4 <HAL_RCC_GetSysClockFreq+0x8c>)
 8001fbc:	f3c1 1188 	ubfx	r1, r1, #6, #9
 8001fc0:	bf18      	it	ne
 8001fc2:	2300      	movne	r3, #0
 8001fc4:	f002 023f 	and.w	r2, r2, #63	; 0x3f
 8001fc8:	fba1 0100 	umull	r0, r1, r1, r0
 8001fcc:	f7fe f970 	bl	80002b0 <__aeabi_uldivmod>
 8001fd0:	4b02      	ldr	r3, [pc, #8]	; (8001fdc <HAL_RCC_GetSysClockFreq+0x84>)
 8001fd2:	685b      	ldr	r3, [r3, #4]
 8001fd4:	f3c3 7302 	ubfx	r3, r3, #28, #3
 8001fd8:	e7e5      	b.n	8001fa6 <HAL_RCC_GetSysClockFreq+0x4e>
 8001fda:	bf00      	nop
 8001fdc:	40023800 	.word	0x40023800
 8001fe0:	017d7840 	.word	0x017d7840
 8001fe4:	00f42400 	.word	0x00f42400

08001fe8 <HAL_RCC_OscConfig>:
 8001fe8:	6803      	ldr	r3, [r0, #0]
 8001fea:	e92d 41f3 	stmdb	sp!, {r0, r1, r4, r5, r6, r7, r8, lr}
 8001fee:	07df      	lsls	r7, r3, #31
 8001ff0:	4604      	mov	r4, r0
 8001ff2:	d410      	bmi.n	8002016 <HAL_RCC_OscConfig+0x2e>
 8001ff4:	6823      	ldr	r3, [r4, #0]
 8001ff6:	079e      	lsls	r6, r3, #30
 8001ff8:	d467      	bmi.n	80020ca <HAL_RCC_OscConfig+0xe2>
 8001ffa:	6823      	ldr	r3, [r4, #0]
 8001ffc:	071a      	lsls	r2, r3, #28
 8001ffe:	f100 80b2 	bmi.w	8002166 <HAL_RCC_OscConfig+0x17e>
 8002002:	6823      	ldr	r3, [r4, #0]
 8002004:	075b      	lsls	r3, r3, #29
 8002006:	f100 80d0 	bmi.w	80021aa <HAL_RCC_OscConfig+0x1c2>
 800200a:	69a2      	ldr	r2, [r4, #24]
 800200c:	2a00      	cmp	r2, #0
 800200e:	f040 8139 	bne.w	8002284 <HAL_RCC_OscConfig+0x29c>
 8002012:	2000      	movs	r0, #0
 8002014:	e01e      	b.n	8002054 <HAL_RCC_OscConfig+0x6c>
 8002016:	4b97      	ldr	r3, [pc, #604]	; (8002274 <HAL_RCC_OscConfig+0x28c>)
 8002018:	689a      	ldr	r2, [r3, #8]
 800201a:	f002 020c 	and.w	r2, r2, #12
 800201e:	2a04      	cmp	r2, #4
 8002020:	d010      	beq.n	8002044 <HAL_RCC_OscConfig+0x5c>
 8002022:	689a      	ldr	r2, [r3, #8]
 8002024:	f002 020c 	and.w	r2, r2, #12
 8002028:	2a08      	cmp	r2, #8
 800202a:	d102      	bne.n	8002032 <HAL_RCC_OscConfig+0x4a>
 800202c:	685b      	ldr	r3, [r3, #4]
 800202e:	025d      	lsls	r5, r3, #9
 8002030:	d408      	bmi.n	8002044 <HAL_RCC_OscConfig+0x5c>
 8002032:	4b90      	ldr	r3, [pc, #576]	; (8002274 <HAL_RCC_OscConfig+0x28c>)
 8002034:	689a      	ldr	r2, [r3, #8]
 8002036:	f002 020c 	and.w	r2, r2, #12
 800203a:	2a0c      	cmp	r2, #12
 800203c:	d10d      	bne.n	800205a <HAL_RCC_OscConfig+0x72>
 800203e:	685a      	ldr	r2, [r3, #4]
 8002040:	0250      	lsls	r0, r2, #9
 8002042:	d50a      	bpl.n	800205a <HAL_RCC_OscConfig+0x72>
 8002044:	4b8b      	ldr	r3, [pc, #556]	; (8002274 <HAL_RCC_OscConfig+0x28c>)
 8002046:	681b      	ldr	r3, [r3, #0]
 8002048:	0399      	lsls	r1, r3, #14
 800204a:	d5d3      	bpl.n	8001ff4 <HAL_RCC_OscConfig+0xc>
 800204c:	6863      	ldr	r3, [r4, #4]
 800204e:	2b00      	cmp	r3, #0
 8002050:	d1d0      	bne.n	8001ff4 <HAL_RCC_OscConfig+0xc>
 8002052:	2001      	movs	r0, #1
 8002054:	b002      	add	sp, #8
 8002056:	e8bd 81f0 	ldmia.w	sp!, {r4, r5, r6, r7, r8, pc}
 800205a:	6862      	ldr	r2, [r4, #4]
 800205c:	f5b2 3f80 	cmp.w	r2, #65536	; 0x10000
 8002060:	d111      	bne.n	8002086 <HAL_RCC_OscConfig+0x9e>
 8002062:	681a      	ldr	r2, [r3, #0]
 8002064:	f442 3280 	orr.w	r2, r2, #65536	; 0x10000
 8002068:	601a      	str	r2, [r3, #0]
 800206a:	f7fe ff39 	bl	8000ee0 <HAL_GetTick>
 800206e:	4d81      	ldr	r5, [pc, #516]	; (8002274 <HAL_RCC_OscConfig+0x28c>)
 8002070:	4606      	mov	r6, r0
 8002072:	682b      	ldr	r3, [r5, #0]
 8002074:	039a      	lsls	r2, r3, #14
 8002076:	d4bd      	bmi.n	8001ff4 <HAL_RCC_OscConfig+0xc>
 8002078:	f7fe ff32 	bl	8000ee0 <HAL_GetTick>
 800207c:	1b80      	subs	r0, r0, r6
 800207e:	2864      	cmp	r0, #100	; 0x64
 8002080:	d9f7      	bls.n	8002072 <HAL_RCC_OscConfig+0x8a>
 8002082:	2003      	movs	r0, #3
 8002084:	e7e6      	b.n	8002054 <HAL_RCC_OscConfig+0x6c>
 8002086:	4d7b      	ldr	r5, [pc, #492]	; (8002274 <HAL_RCC_OscConfig+0x28c>)
 8002088:	f5b2 2fa0 	cmp.w	r2, #327680	; 0x50000
 800208c:	682b      	ldr	r3, [r5, #0]
 800208e:	d107      	bne.n	80020a0 <HAL_RCC_OscConfig+0xb8>
 8002090:	f443 2380 	orr.w	r3, r3, #262144	; 0x40000
 8002094:	602b      	str	r3, [r5, #0]
 8002096:	682b      	ldr	r3, [r5, #0]
 8002098:	f443 3380 	orr.w	r3, r3, #65536	; 0x10000
 800209c:	602b      	str	r3, [r5, #0]
 800209e:	e7e4      	b.n	800206a <HAL_RCC_OscConfig+0x82>
 80020a0:	f423 3380 	bic.w	r3, r3, #65536	; 0x10000
 80020a4:	602b      	str	r3, [r5, #0]
 80020a6:	682b      	ldr	r3, [r5, #0]
 80020a8:	f423 2380 	bic.w	r3, r3, #262144	; 0x40000
 80020ac:	602b      	str	r3, [r5, #0]
 80020ae:	2a00      	cmp	r2, #0
 80020b0:	d1db      	bne.n	800206a <HAL_RCC_OscConfig+0x82>
 80020b2:	f7fe ff15 	bl	8000ee0 <HAL_GetTick>
 80020b6:	4606      	mov	r6, r0
 80020b8:	682b      	ldr	r3, [r5, #0]
 80020ba:	039b      	lsls	r3, r3, #14
 80020bc:	d59a      	bpl.n	8001ff4 <HAL_RCC_OscConfig+0xc>
 80020be:	f7fe ff0f 	bl	8000ee0 <HAL_GetTick>
 80020c2:	1b80      	subs	r0, r0, r6
 80020c4:	2864      	cmp	r0, #100	; 0x64
 80020c6:	d9f7      	bls.n	80020b8 <HAL_RCC_OscConfig+0xd0>
 80020c8:	e7db      	b.n	8002082 <HAL_RCC_OscConfig+0x9a>
 80020ca:	4b6a      	ldr	r3, [pc, #424]	; (8002274 <HAL_RCC_OscConfig+0x28c>)
 80020cc:	689a      	ldr	r2, [r3, #8]
 80020ce:	f012 0f0c 	tst.w	r2, #12
 80020d2:	d010      	beq.n	80020f6 <HAL_RCC_OscConfig+0x10e>
 80020d4:	689a      	ldr	r2, [r3, #8]
 80020d6:	f002 020c 	and.w	r2, r2, #12
 80020da:	2a08      	cmp	r2, #8
 80020dc:	d102      	bne.n	80020e4 <HAL_RCC_OscConfig+0xfc>
 80020de:	685b      	ldr	r3, [r3, #4]
 80020e0:	025f      	lsls	r7, r3, #9
 80020e2:	d508      	bpl.n	80020f6 <HAL_RCC_OscConfig+0x10e>
 80020e4:	4a63      	ldr	r2, [pc, #396]	; (8002274 <HAL_RCC_OscConfig+0x28c>)
 80020e6:	6893      	ldr	r3, [r2, #8]
 80020e8:	f003 030c 	and.w	r3, r3, #12
 80020ec:	2b0c      	cmp	r3, #12
 80020ee:	d111      	bne.n	8002114 <HAL_RCC_OscConfig+0x12c>
 80020f0:	6853      	ldr	r3, [r2, #4]
 80020f2:	025e      	lsls	r6, r3, #9
 80020f4:	d40e      	bmi.n	8002114 <HAL_RCC_OscConfig+0x12c>
 80020f6:	4b5f      	ldr	r3, [pc, #380]	; (8002274 <HAL_RCC_OscConfig+0x28c>)
 80020f8:	681a      	ldr	r2, [r3, #0]
 80020fa:	0795      	lsls	r5, r2, #30
 80020fc:	d502      	bpl.n	8002104 <HAL_RCC_OscConfig+0x11c>
 80020fe:	68e2      	ldr	r2, [r4, #12]
 8002100:	2a01      	cmp	r2, #1
 8002102:	d1a6      	bne.n	8002052 <HAL_RCC_OscConfig+0x6a>
 8002104:	681a      	ldr	r2, [r3, #0]
 8002106:	6921      	ldr	r1, [r4, #16]
 8002108:	f022 02f8 	bic.w	r2, r2, #248	; 0xf8
 800210c:	ea42 02c1 	orr.w	r2, r2, r1, lsl #3
 8002110:	601a      	str	r2, [r3, #0]
 8002112:	e772      	b.n	8001ffa <HAL_RCC_OscConfig+0x12>
 8002114:	68e2      	ldr	r2, [r4, #12]
 8002116:	4b58      	ldr	r3, [pc, #352]	; (8002278 <HAL_RCC_OscConfig+0x290>)
 8002118:	b1b2      	cbz	r2, 8002148 <HAL_RCC_OscConfig+0x160>
 800211a:	2201      	movs	r2, #1
 800211c:	601a      	str	r2, [r3, #0]
 800211e:	f7fe fedf 	bl	8000ee0 <HAL_GetTick>
 8002122:	4d54      	ldr	r5, [pc, #336]	; (8002274 <HAL_RCC_OscConfig+0x28c>)
 8002124:	4606      	mov	r6, r0
 8002126:	682b      	ldr	r3, [r5, #0]
 8002128:	0798      	lsls	r0, r3, #30
 800212a:	d507      	bpl.n	800213c <HAL_RCC_OscConfig+0x154>
 800212c:	682b      	ldr	r3, [r5, #0]
 800212e:	6922      	ldr	r2, [r4, #16]
 8002130:	f023 03f8 	bic.w	r3, r3, #248	; 0xf8
 8002134:	ea43 03c2 	orr.w	r3, r3, r2, lsl #3
 8002138:	602b      	str	r3, [r5, #0]
 800213a:	e75e      	b.n	8001ffa <HAL_RCC_OscConfig+0x12>
 800213c:	f7fe fed0 	bl	8000ee0 <HAL_GetTick>
 8002140:	1b80      	subs	r0, r0, r6
 8002142:	2802      	cmp	r0, #2
 8002144:	d9ef      	bls.n	8002126 <HAL_RCC_OscConfig+0x13e>
 8002146:	e79c      	b.n	8002082 <HAL_RCC_OscConfig+0x9a>
 8002148:	601a      	str	r2, [r3, #0]
 800214a:	f7fe fec9 	bl	8000ee0 <HAL_GetTick>
 800214e:	4d49      	ldr	r5, [pc, #292]	; (8002274 <HAL_RCC_OscConfig+0x28c>)
 8002150:	4606      	mov	r6, r0
 8002152:	682b      	ldr	r3, [r5, #0]
 8002154:	0799      	lsls	r1, r3, #30
 8002156:	f57f af50 	bpl.w	8001ffa <HAL_RCC_OscConfig+0x12>
 800215a:	f7fe fec1 	bl	8000ee0 <HAL_GetTick>
 800215e:	1b80      	subs	r0, r0, r6
 8002160:	2802      	cmp	r0, #2
 8002162:	d9f6      	bls.n	8002152 <HAL_RCC_OscConfig+0x16a>
 8002164:	e78d      	b.n	8002082 <HAL_RCC_OscConfig+0x9a>
 8002166:	6962      	ldr	r2, [r4, #20]
 8002168:	4b44      	ldr	r3, [pc, #272]	; (800227c <HAL_RCC_OscConfig+0x294>)
 800216a:	b17a      	cbz	r2, 800218c <HAL_RCC_OscConfig+0x1a4>
 800216c:	2201      	movs	r2, #1
 800216e:	601a      	str	r2, [r3, #0]
 8002170:	f7fe feb6 	bl	8000ee0 <HAL_GetTick>
 8002174:	4d3f      	ldr	r5, [pc, #252]	; (8002274 <HAL_RCC_OscConfig+0x28c>)
 8002176:	4606      	mov	r6, r0
 8002178:	6f6b      	ldr	r3, [r5, #116]	; 0x74
 800217a:	079f      	lsls	r7, r3, #30
 800217c:	f53f af41 	bmi.w	8002002 <HAL_RCC_OscConfig+0x1a>
 8002180:	f7fe feae 	bl	8000ee0 <HAL_GetTick>
 8002184:	1b80      	subs	r0, r0, r6
 8002186:	2802      	cmp	r0, #2
 8002188:	d9f6      	bls.n	8002178 <HAL_RCC_OscConfig+0x190>
 800218a:	e77a      	b.n	8002082 <HAL_RCC_OscConfig+0x9a>
 800218c:	601a      	str	r2, [r3, #0]
 800218e:	f7fe fea7 	bl	8000ee0 <HAL_GetTick>
 8002192:	4d38      	ldr	r5, [pc, #224]	; (8002274 <HAL_RCC_OscConfig+0x28c>)
 8002194:	4606      	mov	r6, r0
 8002196:	6f6b      	ldr	r3, [r5, #116]	; 0x74
 8002198:	0798      	lsls	r0, r3, #30
 800219a:	f57f af32 	bpl.w	8002002 <HAL_RCC_OscConfig+0x1a>
 800219e:	f7fe fe9f 	bl	8000ee0 <HAL_GetTick>
 80021a2:	1b80      	subs	r0, r0, r6
 80021a4:	2802      	cmp	r0, #2
 80021a6:	d9f6      	bls.n	8002196 <HAL_RCC_OscConfig+0x1ae>
 80021a8:	e76b      	b.n	8002082 <HAL_RCC_OscConfig+0x9a>
 80021aa:	4b32      	ldr	r3, [pc, #200]	; (8002274 <HAL_RCC_OscConfig+0x28c>)
 80021ac:	6c1a      	ldr	r2, [r3, #64]	; 0x40
 80021ae:	f012 5280 	ands.w	r2, r2, #268435456	; 0x10000000
 80021b2:	d128      	bne.n	8002206 <HAL_RCC_OscConfig+0x21e>
 80021b4:	9201      	str	r2, [sp, #4]
 80021b6:	6c1a      	ldr	r2, [r3, #64]	; 0x40
 80021b8:	f042 5280 	orr.w	r2, r2, #268435456	; 0x10000000
 80021bc:	641a      	str	r2, [r3, #64]	; 0x40
 80021be:	6c1b      	ldr	r3, [r3, #64]	; 0x40
 80021c0:	f003 5380 	and.w	r3, r3, #268435456	; 0x10000000
 80021c4:	9301      	str	r3, [sp, #4]
 80021c6:	9b01      	ldr	r3, [sp, #4]
 80021c8:	2601      	movs	r6, #1
 80021ca:	4d2d      	ldr	r5, [pc, #180]	; (8002280 <HAL_RCC_OscConfig+0x298>)
 80021cc:	682b      	ldr	r3, [r5, #0]
 80021ce:	05d9      	lsls	r1, r3, #23
 80021d0:	d51b      	bpl.n	800220a <HAL_RCC_OscConfig+0x222>
 80021d2:	68a3      	ldr	r3, [r4, #8]
 80021d4:	4d27      	ldr	r5, [pc, #156]	; (8002274 <HAL_RCC_OscConfig+0x28c>)
 80021d6:	2b01      	cmp	r3, #1
 80021d8:	d127      	bne.n	800222a <HAL_RCC_OscConfig+0x242>
 80021da:	6f2b      	ldr	r3, [r5, #112]	; 0x70
 80021dc:	f043 0301 	orr.w	r3, r3, #1
 80021e0:	672b      	str	r3, [r5, #112]	; 0x70
 80021e2:	f7fe fe7d 	bl	8000ee0 <HAL_GetTick>
 80021e6:	4d23      	ldr	r5, [pc, #140]	; (8002274 <HAL_RCC_OscConfig+0x28c>)
 80021e8:	4607      	mov	r7, r0
 80021ea:	f241 3888 	movw	r8, #5000	; 0x1388
 80021ee:	6f2b      	ldr	r3, [r5, #112]	; 0x70
 80021f0:	079b      	lsls	r3, r3, #30
 80021f2:	d539      	bpl.n	8002268 <HAL_RCC_OscConfig+0x280>
 80021f4:	2e00      	cmp	r6, #0
 80021f6:	f43f af08 	beq.w	800200a <HAL_RCC_OscConfig+0x22>
 80021fa:	4a1e      	ldr	r2, [pc, #120]	; (8002274 <HAL_RCC_OscConfig+0x28c>)
 80021fc:	6c13      	ldr	r3, [r2, #64]	; 0x40
 80021fe:	f023 5380 	bic.w	r3, r3, #268435456	; 0x10000000
 8002202:	6413      	str	r3, [r2, #64]	; 0x40
 8002204:	e701      	b.n	800200a <HAL_RCC_OscConfig+0x22>
 8002206:	2600      	movs	r6, #0
 8002208:	e7df      	b.n	80021ca <HAL_RCC_OscConfig+0x1e2>
 800220a:	682b      	ldr	r3, [r5, #0]
 800220c:	f443 7380 	orr.w	r3, r3, #256	; 0x100
 8002210:	602b      	str	r3, [r5, #0]
 8002212:	f7fe fe65 	bl	8000ee0 <HAL_GetTick>
 8002216:	4607      	mov	r7, r0
 8002218:	682b      	ldr	r3, [r5, #0]
 800221a:	05da      	lsls	r2, r3, #23
 800221c:	d4d9      	bmi.n	80021d2 <HAL_RCC_OscConfig+0x1ea>
 800221e:	f7fe fe5f 	bl	8000ee0 <HAL_GetTick>
 8002222:	1bc0      	subs	r0, r0, r7
 8002224:	2802      	cmp	r0, #2
 8002226:	d9f7      	bls.n	8002218 <HAL_RCC_OscConfig+0x230>
 8002228:	e72b      	b.n	8002082 <HAL_RCC_OscConfig+0x9a>
 800222a:	2b05      	cmp	r3, #5
 800222c:	d104      	bne.n	8002238 <HAL_RCC_OscConfig+0x250>
 800222e:	6f2b      	ldr	r3, [r5, #112]	; 0x70
 8002230:	f043 0304 	orr.w	r3, r3, #4
 8002234:	672b      	str	r3, [r5, #112]	; 0x70
 8002236:	e7d0      	b.n	80021da <HAL_RCC_OscConfig+0x1f2>
 8002238:	6f2a      	ldr	r2, [r5, #112]	; 0x70
 800223a:	f022 0201 	bic.w	r2, r2, #1
 800223e:	672a      	str	r2, [r5, #112]	; 0x70
 8002240:	6f2a      	ldr	r2, [r5, #112]	; 0x70
 8002242:	f022 0204 	bic.w	r2, r2, #4
 8002246:	672a      	str	r2, [r5, #112]	; 0x70
 8002248:	2b00      	cmp	r3, #0
 800224a:	d1ca      	bne.n	80021e2 <HAL_RCC_OscConfig+0x1fa>
 800224c:	f7fe fe48 	bl	8000ee0 <HAL_GetTick>
 8002250:	f241 3888 	movw	r8, #5000	; 0x1388
 8002254:	4607      	mov	r7, r0
 8002256:	6f2b      	ldr	r3, [r5, #112]	; 0x70
 8002258:	0798      	lsls	r0, r3, #30
 800225a:	d5cb      	bpl.n	80021f4 <HAL_RCC_OscConfig+0x20c>
 800225c:	f7fe fe40 	bl	8000ee0 <HAL_GetTick>
 8002260:	1bc0      	subs	r0, r0, r7
 8002262:	4540      	cmp	r0, r8
 8002264:	d9f7      	bls.n	8002256 <HAL_RCC_OscConfig+0x26e>
 8002266:	e70c      	b.n	8002082 <HAL_RCC_OscConfig+0x9a>
 8002268:	f7fe fe3a 	bl	8000ee0 <HAL_GetTick>
 800226c:	1bc0      	subs	r0, r0, r7
 800226e:	4540      	cmp	r0, r8
 8002270:	d9bd      	bls.n	80021ee <HAL_RCC_OscConfig+0x206>
 8002272:	e706      	b.n	8002082 <HAL_RCC_OscConfig+0x9a>
 8002274:	40023800 	.word	0x40023800
 8002278:	42470000 	.word	0x42470000
 800227c:	42470e80 	.word	0x42470e80
 8002280:	40007000 	.word	0x40007000
 8002284:	4d23      	ldr	r5, [pc, #140]	; (8002314 <HAL_RCC_OscConfig+0x32c>)
 8002286:	68ab      	ldr	r3, [r5, #8]
 8002288:	f003 030c 	and.w	r3, r3, #12
 800228c:	2b08      	cmp	r3, #8
 800228e:	f43f aee0 	beq.w	8002052 <HAL_RCC_OscConfig+0x6a>
 8002292:	4e21      	ldr	r6, [pc, #132]	; (8002318 <HAL_RCC_OscConfig+0x330>)
 8002294:	2300      	movs	r3, #0
 8002296:	2a02      	cmp	r2, #2
 8002298:	6033      	str	r3, [r6, #0]
 800229a:	d12d      	bne.n	80022f8 <HAL_RCC_OscConfig+0x310>
 800229c:	f7fe fe20 	bl	8000ee0 <HAL_GetTick>
 80022a0:	4607      	mov	r7, r0
 80022a2:	682b      	ldr	r3, [r5, #0]
 80022a4:	0199      	lsls	r1, r3, #6
 80022a6:	d421      	bmi.n	80022ec <HAL_RCC_OscConfig+0x304>
 80022a8:	e9d4 3207 	ldrd	r3, r2, [r4, #28]
 80022ac:	4313      	orrs	r3, r2
 80022ae:	6a62      	ldr	r2, [r4, #36]	; 0x24
 80022b0:	ea43 1382 	orr.w	r3, r3, r2, lsl #6
 80022b4:	6ae2      	ldr	r2, [r4, #44]	; 0x2c
 80022b6:	ea43 6302 	orr.w	r3, r3, r2, lsl #24
 80022ba:	6b22      	ldr	r2, [r4, #48]	; 0x30
 80022bc:	ea43 7302 	orr.w	r3, r3, r2, lsl #28
 80022c0:	6aa2      	ldr	r2, [r4, #40]	; 0x28
 80022c2:	4c14      	ldr	r4, [pc, #80]	; (8002314 <HAL_RCC_OscConfig+0x32c>)
 80022c4:	0852      	lsrs	r2, r2, #1
 80022c6:	3a01      	subs	r2, #1
 80022c8:	ea43 4302 	orr.w	r3, r3, r2, lsl #16
 80022cc:	606b      	str	r3, [r5, #4]
 80022ce:	2301      	movs	r3, #1
 80022d0:	6033      	str	r3, [r6, #0]
 80022d2:	f7fe fe05 	bl	8000ee0 <HAL_GetTick>
 80022d6:	4605      	mov	r5, r0
 80022d8:	6823      	ldr	r3, [r4, #0]
 80022da:	019a      	lsls	r2, r3, #6
 80022dc:	f53f ae99 	bmi.w	8002012 <HAL_RCC_OscConfig+0x2a>
 80022e0:	f7fe fdfe 	bl	8000ee0 <HAL_GetTick>
 80022e4:	1b40      	subs	r0, r0, r5
 80022e6:	2802      	cmp	r0, #2
 80022e8:	d9f6      	bls.n	80022d8 <HAL_RCC_OscConfig+0x2f0>
 80022ea:	e6ca      	b.n	8002082 <HAL_RCC_OscConfig+0x9a>
 80022ec:	f7fe fdf8 	bl	8000ee0 <HAL_GetTick>
 80022f0:	1bc0      	subs	r0, r0, r7
 80022f2:	2802      	cmp	r0, #2
 80022f4:	d9d5      	bls.n	80022a2 <HAL_RCC_OscConfig+0x2ba>
 80022f6:	e6c4      	b.n	8002082 <HAL_RCC_OscConfig+0x9a>
 80022f8:	f7fe fdf2 	bl	8000ee0 <HAL_GetTick>
 80022fc:	4604      	mov	r4, r0
 80022fe:	682b      	ldr	r3, [r5, #0]
 8002300:	019b      	lsls	r3, r3, #6
 8002302:	f57f ae86 	bpl.w	8002012 <HAL_RCC_OscConfig+0x2a>
 8002306:	f7fe fdeb 	bl	8000ee0 <HAL_GetTick>
 800230a:	1b00      	subs	r0, r0, r4
 800230c:	2802      	cmp	r0, #2
 800230e:	d9f6      	bls.n	80022fe <HAL_RCC_OscConfig+0x316>
 8002310:	e6b7      	b.n	8002082 <HAL_RCC_OscConfig+0x9a>
 8002312:	bf00      	nop
 8002314:	40023800 	.word	0x40023800
 8002318:	42470060 	.word	0x42470060

0800231c <HAL_TIM_Base_Start>:
 800231c:	2302      	movs	r3, #2
 800231e:	f880 303d 	strb.w	r3, [r0, #61]	; 0x3d
 8002322:	6803      	ldr	r3, [r0, #0]
 8002324:	689a      	ldr	r2, [r3, #8]
 8002326:	f002 0207 	and.w	r2, r2, #7
 800232a:	2a06      	cmp	r2, #6
 800232c:	bf1e      	ittt	ne
 800232e:	681a      	ldrne	r2, [r3, #0]
 8002330:	f042 0201 	orrne.w	r2, r2, #1
 8002334:	601a      	strne	r2, [r3, #0]
 8002336:	2301      	movs	r3, #1
 8002338:	f880 303d 	strb.w	r3, [r0, #61]	; 0x3d
 800233c:	2000      	movs	r0, #0
 800233e:	4770      	bx	lr

08002340 <TIM_Base_SetConfig>:
 8002340:	4a30      	ldr	r2, [pc, #192]	; (8002404 <TIM_Base_SetConfig+0xc4>)
 8002342:	6803      	ldr	r3, [r0, #0]
 8002344:	4290      	cmp	r0, r2
 8002346:	d012      	beq.n	800236e <TIM_Base_SetConfig+0x2e>
 8002348:	f1b0 4f80 	cmp.w	r0, #1073741824	; 0x40000000
 800234c:	d00f      	beq.n	800236e <TIM_Base_SetConfig+0x2e>
 800234e:	f5a2 427c 	sub.w	r2, r2, #64512	; 0xfc00
 8002352:	4290      	cmp	r0, r2
 8002354:	d00b      	beq.n	800236e <TIM_Base_SetConfig+0x2e>
 8002356:	f502 6280 	add.w	r2, r2, #1024	; 0x400
 800235a:	4290      	cmp	r0, r2
 800235c:	d007      	beq.n	800236e <TIM_Base_SetConfig+0x2e>
 800235e:	f502 6280 	add.w	r2, r2, #1024	; 0x400
 8002362:	4290      	cmp	r0, r2
 8002364:	d003      	beq.n	800236e <TIM_Base_SetConfig+0x2e>
 8002366:	f502 4278 	add.w	r2, r2, #63488	; 0xf800
 800236a:	4290      	cmp	r0, r2
 800236c:	d119      	bne.n	80023a2 <TIM_Base_SetConfig+0x62>
 800236e:	684a      	ldr	r2, [r1, #4]
 8002370:	f023 0370 	bic.w	r3, r3, #112	; 0x70
 8002374:	4313      	orrs	r3, r2
 8002376:	4a23      	ldr	r2, [pc, #140]	; (8002404 <TIM_Base_SetConfig+0xc4>)
 8002378:	4290      	cmp	r0, r2
 800237a:	d029      	beq.n	80023d0 <TIM_Base_SetConfig+0x90>
 800237c:	f1b0 4f80 	cmp.w	r0, #1073741824	; 0x40000000
 8002380:	d026      	beq.n	80023d0 <TIM_Base_SetConfig+0x90>
 8002382:	f5a2 427c 	sub.w	r2, r2, #64512	; 0xfc00
 8002386:	4290      	cmp	r0, r2
 8002388:	d022      	beq.n	80023d0 <TIM_Base_SetConfig+0x90>
 800238a:	f502 6280 	add.w	r2, r2, #1024	; 0x400
 800238e:	4290      	cmp	r0, r2
 8002390:	d01e      	beq.n	80023d0 <TIM_Base_SetConfig+0x90>
 8002392:	f502 6280 	add.w	r2, r2, #1024	; 0x400
 8002396:	4290      	cmp	r0, r2
 8002398:	d01a      	beq.n	80023d0 <TIM_Base_SetConfig+0x90>
 800239a:	f502 4278 	add.w	r2, r2, #63488	; 0xf800
 800239e:	4290      	cmp	r0, r2
 80023a0:	d016      	beq.n	80023d0 <TIM_Base_SetConfig+0x90>
 80023a2:	4a19      	ldr	r2, [pc, #100]	; (8002408 <TIM_Base_SetConfig+0xc8>)
 80023a4:	4290      	cmp	r0, r2
 80023a6:	d013      	beq.n	80023d0 <TIM_Base_SetConfig+0x90>
 80023a8:	f502 6280 	add.w	r2, r2, #1024	; 0x400
 80023ac:	4290      	cmp	r0, r2
 80023ae:	d00f      	beq.n	80023d0 <TIM_Base_SetConfig+0x90>
 80023b0:	f502 6280 	add.w	r2, r2, #1024	; 0x400
 80023b4:	4290      	cmp	r0, r2
 80023b6:	d00b      	beq.n	80023d0 <TIM_Base_SetConfig+0x90>
 80023b8:	f5a2 3298 	sub.w	r2, r2, #77824	; 0x13000
 80023bc:	4290      	cmp	r0, r2
 80023be:	d007      	beq.n	80023d0 <TIM_Base_SetConfig+0x90>
 80023c0:	f502 6280 	add.w	r2, r2, #1024	; 0x400
 80023c4:	4290      	cmp	r0, r2
 80023c6:	d003      	beq.n	80023d0 <TIM_Base_SetConfig+0x90>
 80023c8:	f502 6280 	add.w	r2, r2, #1024	; 0x400
 80023cc:	4290      	cmp	r0, r2
 80023ce:	d103      	bne.n	80023d8 <TIM_Base_SetConfig+0x98>
 80023d0:	68ca      	ldr	r2, [r1, #12]
 80023d2:	f423 7340 	bic.w	r3, r3, #768	; 0x300
 80023d6:	4313      	orrs	r3, r2
 80023d8:	694a      	ldr	r2, [r1, #20]
 80023da:	f023 0380 	bic.w	r3, r3, #128	; 0x80
 80023de:	4313      	orrs	r3, r2
 80023e0:	6003      	str	r3, [r0, #0]
 80023e2:	688b      	ldr	r3, [r1, #8]
 80023e4:	62c3      	str	r3, [r0, #44]	; 0x2c
 80023e6:	680b      	ldr	r3, [r1, #0]
 80023e8:	6283      	str	r3, [r0, #40]	; 0x28
 80023ea:	4b06      	ldr	r3, [pc, #24]	; (8002404 <TIM_Base_SetConfig+0xc4>)
 80023ec:	4298      	cmp	r0, r3
 80023ee:	d003      	beq.n	80023f8 <TIM_Base_SetConfig+0xb8>
 80023f0:	f503 6380 	add.w	r3, r3, #1024	; 0x400
 80023f4:	4298      	cmp	r0, r3
 80023f6:	d101      	bne.n	80023fc <TIM_Base_SetConfig+0xbc>
 80023f8:	690b      	ldr	r3, [r1, #16]
 80023fa:	6303      	str	r3, [r0, #48]	; 0x30
 80023fc:	2301      	movs	r3, #1
 80023fe:	6143      	str	r3, [r0, #20]
 8002400:	4770      	bx	lr
 8002402:	bf00      	nop
 8002404:	40010000 	.word	0x40010000
 8002408:	40014000 	.word	0x40014000

0800240c <HAL_TIM_Base_Init>:
 800240c:	b510      	push	{r4, lr}
 800240e:	4604      	mov	r4, r0
 8002410:	b1a0      	cbz	r0, 800243c <HAL_TIM_Base_Init+0x30>
 8002412:	f890 303d 	ldrb.w	r3, [r0, #61]	; 0x3d
 8002416:	f003 02ff 	and.w	r2, r3, #255	; 0xff
 800241a:	b91b      	cbnz	r3, 8002424 <HAL_TIM_Base_Init+0x18>
 800241c:	f880 203c 	strb.w	r2, [r0, #60]	; 0x3c
 8002420:	f7fe fc5e 	bl	8000ce0 <HAL_TIM_Base_MspInit>
 8002424:	2302      	movs	r3, #2
 8002426:	f884 303d 	strb.w	r3, [r4, #61]	; 0x3d
 800242a:	6820      	ldr	r0, [r4, #0]
 800242c:	1d21      	adds	r1, r4, #4
 800242e:	f7ff ff87 	bl	8002340 <TIM_Base_SetConfig>
 8002432:	2301      	movs	r3, #1
 8002434:	f884 303d 	strb.w	r3, [r4, #61]	; 0x3d
 8002438:	2000      	movs	r0, #0
 800243a:	bd10      	pop	{r4, pc}
 800243c:	2001      	movs	r0, #1
 800243e:	e7fc      	b.n	800243a <HAL_TIM_Base_Init+0x2e>

08002440 <TIM_ETR_SetConfig>:
 8002440:	b510      	push	{r4, lr}
 8002442:	6884      	ldr	r4, [r0, #8]
 8002444:	430a      	orrs	r2, r1
 8002446:	f424 447f 	bic.w	r4, r4, #65280	; 0xff00
 800244a:	ea42 2303 	orr.w	r3, r2, r3, lsl #8
 800244e:	4323      	orrs	r3, r4
 8002450:	6083      	str	r3, [r0, #8]
 8002452:	bd10      	pop	{r4, pc}

08002454 <HAL_TIM_ConfigClockSource>:
 8002454:	f890 303c 	ldrb.w	r3, [r0, #60]	; 0x3c
 8002458:	2b01      	cmp	r3, #1
 800245a:	b570      	push	{r4, r5, r6, lr}
 800245c:	4604      	mov	r4, r0
 800245e:	f04f 0002 	mov.w	r0, #2
 8002462:	d019      	beq.n	8002498 <HAL_TIM_ConfigClockSource+0x44>
 8002464:	f884 003d 	strb.w	r0, [r4, #61]	; 0x3d
 8002468:	6820      	ldr	r0, [r4, #0]
 800246a:	2301      	movs	r3, #1
 800246c:	f884 303c 	strb.w	r3, [r4, #60]	; 0x3c
 8002470:	6883      	ldr	r3, [r0, #8]
 8002472:	f423 437f 	bic.w	r3, r3, #65280	; 0xff00
 8002476:	f023 0377 	bic.w	r3, r3, #119	; 0x77
 800247a:	6083      	str	r3, [r0, #8]
 800247c:	680b      	ldr	r3, [r1, #0]
 800247e:	2b40      	cmp	r3, #64	; 0x40
 8002480:	d065      	beq.n	800254e <HAL_TIM_ConfigClockSource+0xfa>
 8002482:	d815      	bhi.n	80024b0 <HAL_TIM_ConfigClockSource+0x5c>
 8002484:	2b10      	cmp	r3, #16
 8002486:	d00c      	beq.n	80024a2 <HAL_TIM_ConfigClockSource+0x4e>
 8002488:	d807      	bhi.n	800249a <HAL_TIM_ConfigClockSource+0x46>
 800248a:	b153      	cbz	r3, 80024a2 <HAL_TIM_ConfigClockSource+0x4e>
 800248c:	2301      	movs	r3, #1
 800248e:	2000      	movs	r0, #0
 8002490:	f884 303d 	strb.w	r3, [r4, #61]	; 0x3d
 8002494:	f884 003c 	strb.w	r0, [r4, #60]	; 0x3c
 8002498:	bd70      	pop	{r4, r5, r6, pc}
 800249a:	2b20      	cmp	r3, #32
 800249c:	d001      	beq.n	80024a2 <HAL_TIM_ConfigClockSource+0x4e>
 800249e:	2b30      	cmp	r3, #48	; 0x30
 80024a0:	d1f4      	bne.n	800248c <HAL_TIM_ConfigClockSource+0x38>
 80024a2:	6882      	ldr	r2, [r0, #8]
 80024a4:	f043 0307 	orr.w	r3, r3, #7
 80024a8:	f022 0270 	bic.w	r2, r2, #112	; 0x70
 80024ac:	4313      	orrs	r3, r2
 80024ae:	e01a      	b.n	80024e6 <HAL_TIM_ConfigClockSource+0x92>
 80024b0:	2b60      	cmp	r3, #96	; 0x60
 80024b2:	d034      	beq.n	800251e <HAL_TIM_ConfigClockSource+0xca>
 80024b4:	d819      	bhi.n	80024ea <HAL_TIM_ConfigClockSource+0x96>
 80024b6:	2b50      	cmp	r3, #80	; 0x50
 80024b8:	d1e8      	bne.n	800248c <HAL_TIM_ConfigClockSource+0x38>
 80024ba:	684a      	ldr	r2, [r1, #4]
 80024bc:	68ce      	ldr	r6, [r1, #12]
 80024be:	6a01      	ldr	r1, [r0, #32]
 80024c0:	6a05      	ldr	r5, [r0, #32]
 80024c2:	f025 0501 	bic.w	r5, r5, #1
 80024c6:	6205      	str	r5, [r0, #32]
 80024c8:	6983      	ldr	r3, [r0, #24]
 80024ca:	f021 010a 	bic.w	r1, r1, #10
 80024ce:	f023 03f0 	bic.w	r3, r3, #240	; 0xf0
 80024d2:	ea43 1306 	orr.w	r3, r3, r6, lsl #4
 80024d6:	430a      	orrs	r2, r1
 80024d8:	6183      	str	r3, [r0, #24]
 80024da:	6202      	str	r2, [r0, #32]
 80024dc:	6883      	ldr	r3, [r0, #8]
 80024de:	f023 0370 	bic.w	r3, r3, #112	; 0x70
 80024e2:	f043 0357 	orr.w	r3, r3, #87	; 0x57
 80024e6:	6083      	str	r3, [r0, #8]
 80024e8:	e7d0      	b.n	800248c <HAL_TIM_ConfigClockSource+0x38>
 80024ea:	2b70      	cmp	r3, #112	; 0x70
 80024ec:	d00c      	beq.n	8002508 <HAL_TIM_ConfigClockSource+0xb4>
 80024ee:	f5b3 5f00 	cmp.w	r3, #8192	; 0x2000
 80024f2:	d1cb      	bne.n	800248c <HAL_TIM_ConfigClockSource+0x38>
 80024f4:	68cb      	ldr	r3, [r1, #12]
 80024f6:	e9d1 2101 	ldrd	r2, r1, [r1, #4]
 80024fa:	f7ff ffa1 	bl	8002440 <TIM_ETR_SetConfig>
 80024fe:	6822      	ldr	r2, [r4, #0]
 8002500:	6893      	ldr	r3, [r2, #8]
 8002502:	f443 4380 	orr.w	r3, r3, #16384	; 0x4000
 8002506:	e008      	b.n	800251a <HAL_TIM_ConfigClockSource+0xc6>
 8002508:	68cb      	ldr	r3, [r1, #12]
 800250a:	e9d1 2101 	ldrd	r2, r1, [r1, #4]
 800250e:	f7ff ff97 	bl	8002440 <TIM_ETR_SetConfig>
 8002512:	6822      	ldr	r2, [r4, #0]
 8002514:	6893      	ldr	r3, [r2, #8]
 8002516:	f043 0377 	orr.w	r3, r3, #119	; 0x77
 800251a:	6093      	str	r3, [r2, #8]
 800251c:	e7b6      	b.n	800248c <HAL_TIM_ConfigClockSource+0x38>
 800251e:	684d      	ldr	r5, [r1, #4]
 8002520:	68ce      	ldr	r6, [r1, #12]
 8002522:	6a01      	ldr	r1, [r0, #32]
 8002524:	f021 0110 	bic.w	r1, r1, #16
 8002528:	6201      	str	r1, [r0, #32]
 800252a:	6982      	ldr	r2, [r0, #24]
 800252c:	6a03      	ldr	r3, [r0, #32]
 800252e:	f422 4270 	bic.w	r2, r2, #61440	; 0xf000
 8002532:	f023 03a0 	bic.w	r3, r3, #160	; 0xa0
 8002536:	ea43 1305 	orr.w	r3, r3, r5, lsl #4
 800253a:	ea42 3206 	orr.w	r2, r2, r6, lsl #12
 800253e:	6182      	str	r2, [r0, #24]
 8002540:	6203      	str	r3, [r0, #32]
 8002542:	6883      	ldr	r3, [r0, #8]
 8002544:	f023 0370 	bic.w	r3, r3, #112	; 0x70
 8002548:	f043 0367 	orr.w	r3, r3, #103	; 0x67
 800254c:	e7cb      	b.n	80024e6 <HAL_TIM_ConfigClockSource+0x92>
 800254e:	684a      	ldr	r2, [r1, #4]
 8002550:	68ce      	ldr	r6, [r1, #12]
 8002552:	6a01      	ldr	r1, [r0, #32]
 8002554:	6a05      	ldr	r5, [r0, #32]
 8002556:	f025 0501 	bic.w	r5, r5, #1
 800255a:	6205      	str	r5, [r0, #32]
 800255c:	6983      	ldr	r3, [r0, #24]
 800255e:	f021 010a 	bic.w	r1, r1, #10
 8002562:	f023 03f0 	bic.w	r3, r3, #240	; 0xf0
 8002566:	ea43 1306 	orr.w	r3, r3, r6, lsl #4
 800256a:	430a      	orrs	r2, r1
 800256c:	6183      	str	r3, [r0, #24]
 800256e:	6202      	str	r2, [r0, #32]
 8002570:	6883      	ldr	r3, [r0, #8]
 8002572:	f023 0370 	bic.w	r3, r3, #112	; 0x70
 8002576:	f043 0347 	orr.w	r3, r3, #71	; 0x47
 800257a:	e7b4      	b.n	80024e6 <HAL_TIM_ConfigClockSource+0x92>

0800257c <HAL_TIMEx_MasterConfigSynchronization>:
 800257c:	f890 303c 	ldrb.w	r3, [r0, #60]	; 0x3c
 8002580:	2b01      	cmp	r3, #1
 8002582:	b530      	push	{r4, r5, lr}
 8002584:	f04f 0302 	mov.w	r3, #2
 8002588:	d035      	beq.n	80025f6 <HAL_TIMEx_MasterConfigSynchronization+0x7a>
 800258a:	f880 303d 	strb.w	r3, [r0, #61]	; 0x3d
 800258e:	6803      	ldr	r3, [r0, #0]
 8002590:	680d      	ldr	r5, [r1, #0]
 8002592:	685c      	ldr	r4, [r3, #4]
 8002594:	f024 0470 	bic.w	r4, r4, #112	; 0x70
 8002598:	2201      	movs	r2, #1
 800259a:	432c      	orrs	r4, r5
 800259c:	f880 203c 	strb.w	r2, [r0, #60]	; 0x3c
 80025a0:	689a      	ldr	r2, [r3, #8]
 80025a2:	605c      	str	r4, [r3, #4]
 80025a4:	4c15      	ldr	r4, [pc, #84]	; (80025fc <HAL_TIMEx_MasterConfigSynchronization+0x80>)
 80025a6:	42a3      	cmp	r3, r4
 80025a8:	d01a      	beq.n	80025e0 <HAL_TIMEx_MasterConfigSynchronization+0x64>
 80025aa:	f1b3 4f80 	cmp.w	r3, #1073741824	; 0x40000000
 80025ae:	d017      	beq.n	80025e0 <HAL_TIMEx_MasterConfigSynchronization+0x64>
 80025b0:	f5a4 447c 	sub.w	r4, r4, #64512	; 0xfc00
 80025b4:	42a3      	cmp	r3, r4
 80025b6:	d013      	beq.n	80025e0 <HAL_TIMEx_MasterConfigSynchronization+0x64>
 80025b8:	f504 6480 	add.w	r4, r4, #1024	; 0x400
 80025bc:	42a3      	cmp	r3, r4
 80025be:	d00f      	beq.n	80025e0 <HAL_TIMEx_MasterConfigSynchronization+0x64>
 80025c0:	f504 6480 	add.w	r4, r4, #1024	; 0x400
 80025c4:	42a3      	cmp	r3, r4
 80025c6:	d00b      	beq.n	80025e0 <HAL_TIMEx_MasterConfigSynchronization+0x64>
 80025c8:	f504 4478 	add.w	r4, r4, #63488	; 0xf800
 80025cc:	42a3      	cmp	r3, r4
 80025ce:	d007      	beq.n	80025e0 <HAL_TIMEx_MasterConfigSynchronization+0x64>
 80025d0:	f504 5470 	add.w	r4, r4, #15360	; 0x3c00
 80025d4:	42a3      	cmp	r3, r4
 80025d6:	d003      	beq.n	80025e0 <HAL_TIMEx_MasterConfigSynchronization+0x64>
 80025d8:	f5a4 3494 	sub.w	r4, r4, #75776	; 0x12800
 80025dc:	42a3      	cmp	r3, r4
 80025de:	d104      	bne.n	80025ea <HAL_TIMEx_MasterConfigSynchronization+0x6e>
 80025e0:	6849      	ldr	r1, [r1, #4]
 80025e2:	f022 0280 	bic.w	r2, r2, #128	; 0x80
 80025e6:	430a      	orrs	r2, r1
 80025e8:	609a      	str	r2, [r3, #8]
 80025ea:	2301      	movs	r3, #1
 80025ec:	f880 303d 	strb.w	r3, [r0, #61]	; 0x3d
 80025f0:	2300      	movs	r3, #0
 80025f2:	f880 303c 	strb.w	r3, [r0, #60]	; 0x3c
 80025f6:	4618      	mov	r0, r3
 80025f8:	bd30      	pop	{r4, r5, pc}
 80025fa:	bf00      	nop
 80025fc:	40010000 	.word	0x40010000

08002600 <UART_EndRxTransfer>:
 8002600:	6803      	ldr	r3, [r0, #0]
 8002602:	68da      	ldr	r2, [r3, #12]
 8002604:	f422 7290 	bic.w	r2, r2, #288	; 0x120
 8002608:	60da      	str	r2, [r3, #12]
 800260a:	695a      	ldr	r2, [r3, #20]
 800260c:	f022 0201 	bic.w	r2, r2, #1
 8002610:	615a      	str	r2, [r3, #20]
 8002612:	2320      	movs	r3, #32
 8002614:	f880 303a 	strb.w	r3, [r0, #58]	; 0x3a
 8002618:	4770      	bx	lr
	...

0800261c <UART_SetConfig>:
 800261c:	6803      	ldr	r3, [r0, #0]
 800261e:	68c1      	ldr	r1, [r0, #12]
 8002620:	691a      	ldr	r2, [r3, #16]
 8002622:	b570      	push	{r4, r5, r6, lr}
 8002624:	f422 5240 	bic.w	r2, r2, #12288	; 0x3000
 8002628:	4604      	mov	r4, r0
 800262a:	430a      	orrs	r2, r1
 800262c:	611a      	str	r2, [r3, #16]
 800262e:	6925      	ldr	r5, [r4, #16]
 8002630:	68a2      	ldr	r2, [r4, #8]
 8002632:	68d9      	ldr	r1, [r3, #12]
 8002634:	69c0      	ldr	r0, [r0, #28]
 8002636:	432a      	orrs	r2, r5
 8002638:	6965      	ldr	r5, [r4, #20]
 800263a:	f421 4116 	bic.w	r1, r1, #38400	; 0x9600
 800263e:	432a      	orrs	r2, r5
 8002640:	f021 010c 	bic.w	r1, r1, #12
 8002644:	4302      	orrs	r2, r0
 8002646:	430a      	orrs	r2, r1
 8002648:	60da      	str	r2, [r3, #12]
 800264a:	695a      	ldr	r2, [r3, #20]
 800264c:	69a1      	ldr	r1, [r4, #24]
 800264e:	f422 7240 	bic.w	r2, r2, #768	; 0x300
 8002652:	430a      	orrs	r2, r1
 8002654:	f5b0 4f00 	cmp.w	r0, #32768	; 0x8000
 8002658:	615a      	str	r2, [r3, #20]
 800265a:	4a26      	ldr	r2, [pc, #152]	; (80026f4 <UART_SetConfig+0xd8>)
 800265c:	d129      	bne.n	80026b2 <UART_SetConfig+0x96>
 800265e:	4293      	cmp	r3, r2
 8002660:	d003      	beq.n	800266a <UART_SetConfig+0x4e>
 8002662:	f502 6280 	add.w	r2, r2, #1024	; 0x400
 8002666:	4293      	cmp	r3, r2
 8002668:	d120      	bne.n	80026ac <UART_SetConfig+0x90>
 800266a:	f7ff fc65 	bl	8001f38 <HAL_RCC_GetPCLK2Freq>
 800266e:	6862      	ldr	r2, [r4, #4]
 8002670:	2600      	movs	r6, #0
 8002672:	1892      	adds	r2, r2, r2
 8002674:	f04f 0119 	mov.w	r1, #25
 8002678:	eb46 0306 	adc.w	r3, r6, r6
 800267c:	fba0 0101 	umull	r0, r1, r0, r1
 8002680:	f7fd fe16 	bl	80002b0 <__aeabi_uldivmod>
 8002684:	2164      	movs	r1, #100	; 0x64
 8002686:	fbb0 f5f1 	udiv	r5, r0, r1
 800268a:	fb01 0315 	mls	r3, r1, r5, r0
 800268e:	00db      	lsls	r3, r3, #3
 8002690:	3332      	adds	r3, #50	; 0x32
 8002692:	fbb3 f3f1 	udiv	r3, r3, r1
 8002696:	f003 0207 	and.w	r2, r3, #7
 800269a:	005b      	lsls	r3, r3, #1
 800269c:	6821      	ldr	r1, [r4, #0]
 800269e:	eb02 1205 	add.w	r2, r2, r5, lsl #4
 80026a2:	f403 73f8 	and.w	r3, r3, #496	; 0x1f0
 80026a6:	4413      	add	r3, r2
 80026a8:	608b      	str	r3, [r1, #8]
 80026aa:	bd70      	pop	{r4, r5, r6, pc}
 80026ac:	f7ff fc34 	bl	8001f18 <HAL_RCC_GetPCLK1Freq>
 80026b0:	e7dd      	b.n	800266e <UART_SetConfig+0x52>
 80026b2:	4293      	cmp	r3, r2
 80026b4:	d002      	beq.n	80026bc <UART_SetConfig+0xa0>
 80026b6:	4a10      	ldr	r2, [pc, #64]	; (80026f8 <UART_SetConfig+0xdc>)
 80026b8:	4293      	cmp	r3, r2
 80026ba:	d117      	bne.n	80026ec <UART_SetConfig+0xd0>
 80026bc:	f7ff fc3c 	bl	8001f38 <HAL_RCC_GetPCLK2Freq>
 80026c0:	6863      	ldr	r3, [r4, #4]
 80026c2:	2119      	movs	r1, #25
 80026c4:	009a      	lsls	r2, r3, #2
 80026c6:	fba0 0101 	umull	r0, r1, r0, r1
 80026ca:	0f9b      	lsrs	r3, r3, #30
 80026cc:	f7fd fdf0 	bl	80002b0 <__aeabi_uldivmod>
 80026d0:	2264      	movs	r2, #100	; 0x64
 80026d2:	fbb0 f1f2 	udiv	r1, r0, r2
 80026d6:	fb02 0311 	mls	r3, r2, r1, r0
 80026da:	6824      	ldr	r4, [r4, #0]
 80026dc:	011b      	lsls	r3, r3, #4
 80026de:	3332      	adds	r3, #50	; 0x32
 80026e0:	fbb3 f3f2 	udiv	r3, r3, r2
 80026e4:	eb03 1301 	add.w	r3, r3, r1, lsl #4
 80026e8:	60a3      	str	r3, [r4, #8]
 80026ea:	e7de      	b.n	80026aa <UART_SetConfig+0x8e>
 80026ec:	f7ff fc14 	bl	8001f18 <HAL_RCC_GetPCLK1Freq>
 80026f0:	e7e6      	b.n	80026c0 <UART_SetConfig+0xa4>
 80026f2:	bf00      	nop
 80026f4:	40011000 	.word	0x40011000
 80026f8:	40011400 	.word	0x40011400

080026fc <UART_WaitOnFlagUntilTimeout.constprop.3>:
 80026fc:	b5f8      	push	{r3, r4, r5, r6, r7, lr}
 80026fe:	4604      	mov	r4, r0
 8002700:	460e      	mov	r6, r1
 8002702:	4617      	mov	r7, r2
 8002704:	461d      	mov	r5, r3
 8002706:	6821      	ldr	r1, [r4, #0]
 8002708:	680b      	ldr	r3, [r1, #0]
 800270a:	ea36 0303 	bics.w	r3, r6, r3
 800270e:	d101      	bne.n	8002714 <UART_WaitOnFlagUntilTimeout.constprop.3+0x18>
 8002710:	2000      	movs	r0, #0
 8002712:	e014      	b.n	800273e <UART_WaitOnFlagUntilTimeout.constprop.3+0x42>
 8002714:	1c6b      	adds	r3, r5, #1
 8002716:	d0f7      	beq.n	8002708 <UART_WaitOnFlagUntilTimeout.constprop.3+0xc>
 8002718:	b995      	cbnz	r5, 8002740 <UART_WaitOnFlagUntilTimeout.constprop.3+0x44>
 800271a:	6823      	ldr	r3, [r4, #0]
 800271c:	68da      	ldr	r2, [r3, #12]
 800271e:	f422 72d0 	bic.w	r2, r2, #416	; 0x1a0
 8002722:	60da      	str	r2, [r3, #12]
 8002724:	695a      	ldr	r2, [r3, #20]
 8002726:	f022 0201 	bic.w	r2, r2, #1
 800272a:	615a      	str	r2, [r3, #20]
 800272c:	2320      	movs	r3, #32
 800272e:	f884 3039 	strb.w	r3, [r4, #57]	; 0x39
 8002732:	f884 303a 	strb.w	r3, [r4, #58]	; 0x3a
 8002736:	2300      	movs	r3, #0
 8002738:	f884 3038 	strb.w	r3, [r4, #56]	; 0x38
 800273c:	2003      	movs	r0, #3
 800273e:	bdf8      	pop	{r3, r4, r5, r6, r7, pc}
 8002740:	f7fe fbce 	bl	8000ee0 <HAL_GetTick>
 8002744:	1bc0      	subs	r0, r0, r7
 8002746:	4285      	cmp	r5, r0
 8002748:	d2dd      	bcs.n	8002706 <UART_WaitOnFlagUntilTimeout.constprop.3+0xa>
 800274a:	e7e6      	b.n	800271a <UART_WaitOnFlagUntilTimeout.constprop.3+0x1e>

0800274c <HAL_UART_Init>:
 800274c:	b510      	push	{r4, lr}
 800274e:	4604      	mov	r4, r0
 8002750:	b340      	cbz	r0, 80027a4 <HAL_UART_Init+0x58>
 8002752:	f890 3039 	ldrb.w	r3, [r0, #57]	; 0x39
 8002756:	f003 02ff 	and.w	r2, r3, #255	; 0xff
 800275a:	b91b      	cbnz	r3, 8002764 <HAL_UART_Init+0x18>
 800275c:	f880 2038 	strb.w	r2, [r0, #56]	; 0x38
 8002760:	f7fe faf0 	bl	8000d44 <HAL_UART_MspInit>
 8002764:	6822      	ldr	r2, [r4, #0]
 8002766:	2324      	movs	r3, #36	; 0x24
 8002768:	f884 3039 	strb.w	r3, [r4, #57]	; 0x39
 800276c:	68d3      	ldr	r3, [r2, #12]
 800276e:	f423 5300 	bic.w	r3, r3, #8192	; 0x2000
 8002772:	60d3      	str	r3, [r2, #12]
 8002774:	4620      	mov	r0, r4
 8002776:	f7ff ff51 	bl	800261c <UART_SetConfig>
 800277a:	6823      	ldr	r3, [r4, #0]
 800277c:	691a      	ldr	r2, [r3, #16]
 800277e:	f422 4290 	bic.w	r2, r2, #18432	; 0x4800
 8002782:	611a      	str	r2, [r3, #16]
 8002784:	695a      	ldr	r2, [r3, #20]
 8002786:	f022 022a 	bic.w	r2, r2, #42	; 0x2a
 800278a:	615a      	str	r2, [r3, #20]
 800278c:	68da      	ldr	r2, [r3, #12]
 800278e:	f442 5200 	orr.w	r2, r2, #8192	; 0x2000
 8002792:	60da      	str	r2, [r3, #12]
 8002794:	2000      	movs	r0, #0
 8002796:	2320      	movs	r3, #32
 8002798:	63e0      	str	r0, [r4, #60]	; 0x3c
 800279a:	f884 3039 	strb.w	r3, [r4, #57]	; 0x39
 800279e:	f884 303a 	strb.w	r3, [r4, #58]	; 0x3a
 80027a2:	bd10      	pop	{r4, pc}
 80027a4:	2001      	movs	r0, #1
 80027a6:	e7fc      	b.n	80027a2 <HAL_UART_Init+0x56>

080027a8 <HAL_UART_Transmit>:
 80027a8:	e92d 43f8 	stmdb	sp!, {r3, r4, r5, r6, r7, r8, r9, lr}
 80027ac:	461f      	mov	r7, r3
 80027ae:	f890 3039 	ldrb.w	r3, [r0, #57]	; 0x39
 80027b2:	2b20      	cmp	r3, #32
 80027b4:	4604      	mov	r4, r0
 80027b6:	460d      	mov	r5, r1
 80027b8:	4690      	mov	r8, r2
 80027ba:	d14f      	bne.n	800285c <HAL_UART_Transmit+0xb4>
 80027bc:	2900      	cmp	r1, #0
 80027be:	d04b      	beq.n	8002858 <HAL_UART_Transmit+0xb0>
 80027c0:	2a00      	cmp	r2, #0
 80027c2:	d049      	beq.n	8002858 <HAL_UART_Transmit+0xb0>
 80027c4:	f890 3038 	ldrb.w	r3, [r0, #56]	; 0x38
 80027c8:	2b01      	cmp	r3, #1
 80027ca:	d047      	beq.n	800285c <HAL_UART_Transmit+0xb4>
 80027cc:	2301      	movs	r3, #1
 80027ce:	f880 3038 	strb.w	r3, [r0, #56]	; 0x38
 80027d2:	f04f 0900 	mov.w	r9, #0
 80027d6:	2321      	movs	r3, #33	; 0x21
 80027d8:	f8c0 903c 	str.w	r9, [r0, #60]	; 0x3c
 80027dc:	f880 3039 	strb.w	r3, [r0, #57]	; 0x39
 80027e0:	f7fe fb7e 	bl	8000ee0 <HAL_GetTick>
 80027e4:	f8a4 8024 	strh.w	r8, [r4, #36]	; 0x24
 80027e8:	4606      	mov	r6, r0
 80027ea:	f8a4 8026 	strh.w	r8, [r4, #38]	; 0x26
 80027ee:	f884 9038 	strb.w	r9, [r4, #56]	; 0x38
 80027f2:	8ce3      	ldrh	r3, [r4, #38]	; 0x26
 80027f4:	b29b      	uxth	r3, r3
 80027f6:	b953      	cbnz	r3, 800280e <HAL_UART_Transmit+0x66>
 80027f8:	463b      	mov	r3, r7
 80027fa:	4632      	mov	r2, r6
 80027fc:	2140      	movs	r1, #64	; 0x40
 80027fe:	4620      	mov	r0, r4
 8002800:	f7ff ff7c 	bl	80026fc <UART_WaitOnFlagUntilTimeout.constprop.3>
 8002804:	b998      	cbnz	r0, 800282e <HAL_UART_Transmit+0x86>
 8002806:	2320      	movs	r3, #32
 8002808:	f884 3039 	strb.w	r3, [r4, #57]	; 0x39
 800280c:	e010      	b.n	8002830 <HAL_UART_Transmit+0x88>
 800280e:	8ce3      	ldrh	r3, [r4, #38]	; 0x26
 8002810:	3b01      	subs	r3, #1
 8002812:	b29b      	uxth	r3, r3
 8002814:	84e3      	strh	r3, [r4, #38]	; 0x26
 8002816:	68a3      	ldr	r3, [r4, #8]
 8002818:	f5b3 5f80 	cmp.w	r3, #4096	; 0x1000
 800281c:	4632      	mov	r2, r6
 800281e:	463b      	mov	r3, r7
 8002820:	f04f 0180 	mov.w	r1, #128	; 0x80
 8002824:	4620      	mov	r0, r4
 8002826:	d10e      	bne.n	8002846 <HAL_UART_Transmit+0x9e>
 8002828:	f7ff ff68 	bl	80026fc <UART_WaitOnFlagUntilTimeout.constprop.3>
 800282c:	b110      	cbz	r0, 8002834 <HAL_UART_Transmit+0x8c>
 800282e:	2003      	movs	r0, #3
 8002830:	e8bd 83f8 	ldmia.w	sp!, {r3, r4, r5, r6, r7, r8, r9, pc}
 8002834:	882b      	ldrh	r3, [r5, #0]
 8002836:	6822      	ldr	r2, [r4, #0]
 8002838:	f3c3 0308 	ubfx	r3, r3, #0, #9
 800283c:	6053      	str	r3, [r2, #4]
 800283e:	6923      	ldr	r3, [r4, #16]
 8002840:	b943      	cbnz	r3, 8002854 <HAL_UART_Transmit+0xac>
 8002842:	3502      	adds	r5, #2
 8002844:	e7d5      	b.n	80027f2 <HAL_UART_Transmit+0x4a>
 8002846:	f7ff ff59 	bl	80026fc <UART_WaitOnFlagUntilTimeout.constprop.3>
 800284a:	2800      	cmp	r0, #0
 800284c:	d1ef      	bne.n	800282e <HAL_UART_Transmit+0x86>
 800284e:	6823      	ldr	r3, [r4, #0]
 8002850:	782a      	ldrb	r2, [r5, #0]
 8002852:	605a      	str	r2, [r3, #4]
 8002854:	3501      	adds	r5, #1
 8002856:	e7cc      	b.n	80027f2 <HAL_UART_Transmit+0x4a>
 8002858:	2001      	movs	r0, #1
 800285a:	e7e9      	b.n	8002830 <HAL_UART_Transmit+0x88>
 800285c:	2002      	movs	r0, #2
 800285e:	e7e7      	b.n	8002830 <HAL_UART_Transmit+0x88>

08002860 <HAL_UART_Receive_IT>:
 8002860:	f890 303a 	ldrb.w	r3, [r0, #58]	; 0x3a
 8002864:	2b20      	cmp	r3, #32
 8002866:	d120      	bne.n	80028aa <HAL_UART_Receive_IT+0x4a>
 8002868:	b1e9      	cbz	r1, 80028a6 <HAL_UART_Receive_IT+0x46>
 800286a:	b1e2      	cbz	r2, 80028a6 <HAL_UART_Receive_IT+0x46>
 800286c:	f890 3038 	ldrb.w	r3, [r0, #56]	; 0x38
 8002870:	2b01      	cmp	r3, #1
 8002872:	d01a      	beq.n	80028aa <HAL_UART_Receive_IT+0x4a>
 8002874:	85c2      	strh	r2, [r0, #46]	; 0x2e
 8002876:	8582      	strh	r2, [r0, #44]	; 0x2c
 8002878:	2300      	movs	r3, #0
 800287a:	2222      	movs	r2, #34	; 0x22
 800287c:	63c3      	str	r3, [r0, #60]	; 0x3c
 800287e:	f880 203a 	strb.w	r2, [r0, #58]	; 0x3a
 8002882:	6802      	ldr	r2, [r0, #0]
 8002884:	6281      	str	r1, [r0, #40]	; 0x28
 8002886:	68d1      	ldr	r1, [r2, #12]
 8002888:	f880 3038 	strb.w	r3, [r0, #56]	; 0x38
 800288c:	f441 7180 	orr.w	r1, r1, #256	; 0x100
 8002890:	60d1      	str	r1, [r2, #12]
 8002892:	6951      	ldr	r1, [r2, #20]
 8002894:	f041 0101 	orr.w	r1, r1, #1
 8002898:	6151      	str	r1, [r2, #20]
 800289a:	68d1      	ldr	r1, [r2, #12]
 800289c:	f041 0120 	orr.w	r1, r1, #32
 80028a0:	60d1      	str	r1, [r2, #12]
 80028a2:	4618      	mov	r0, r3
 80028a4:	4770      	bx	lr
 80028a6:	2001      	movs	r0, #1
 80028a8:	4770      	bx	lr
 80028aa:	2002      	movs	r0, #2
 80028ac:	4770      	bx	lr
	...

080028b0 <HAL_UART_Transmit_DMA>:
 80028b0:	b538      	push	{r3, r4, r5, lr}
 80028b2:	4604      	mov	r4, r0
 80028b4:	4613      	mov	r3, r2
 80028b6:	f894 2039 	ldrb.w	r2, [r4, #57]	; 0x39
 80028ba:	2a20      	cmp	r2, #32
 80028bc:	d12a      	bne.n	8002914 <HAL_UART_Transmit_DMA+0x64>
 80028be:	b339      	cbz	r1, 8002910 <HAL_UART_Transmit_DMA+0x60>
 80028c0:	b333      	cbz	r3, 8002910 <HAL_UART_Transmit_DMA+0x60>
 80028c2:	f894 2038 	ldrb.w	r2, [r4, #56]	; 0x38
 80028c6:	2a01      	cmp	r2, #1
 80028c8:	d024      	beq.n	8002914 <HAL_UART_Transmit_DMA+0x64>
 80028ca:	2201      	movs	r2, #1
 80028cc:	f884 2038 	strb.w	r2, [r4, #56]	; 0x38
 80028d0:	2500      	movs	r5, #0
 80028d2:	6b20      	ldr	r0, [r4, #48]	; 0x30
 80028d4:	84e3      	strh	r3, [r4, #38]	; 0x26
 80028d6:	2221      	movs	r2, #33	; 0x21
 80028d8:	63e5      	str	r5, [r4, #60]	; 0x3c
 80028da:	f884 2039 	strb.w	r2, [r4, #57]	; 0x39
 80028de:	4a0e      	ldr	r2, [pc, #56]	; (8002918 <HAL_UART_Transmit_DMA+0x68>)
 80028e0:	84a3      	strh	r3, [r4, #36]	; 0x24
 80028e2:	6221      	str	r1, [r4, #32]
 80028e4:	63c2      	str	r2, [r0, #60]	; 0x3c
 80028e6:	4a0d      	ldr	r2, [pc, #52]	; (800291c <HAL_UART_Transmit_DMA+0x6c>)
 80028e8:	6402      	str	r2, [r0, #64]	; 0x40
 80028ea:	4a0d      	ldr	r2, [pc, #52]	; (8002920 <HAL_UART_Transmit_DMA+0x70>)
 80028ec:	e9c0 2513 	strd	r2, r5, [r0, #76]	; 0x4c
 80028f0:	6822      	ldr	r2, [r4, #0]
 80028f2:	3204      	adds	r2, #4
 80028f4:	f7fe fc0c 	bl	8001110 <HAL_DMA_Start_IT>
 80028f8:	6823      	ldr	r3, [r4, #0]
 80028fa:	f06f 0240 	mvn.w	r2, #64	; 0x40
 80028fe:	601a      	str	r2, [r3, #0]
 8002900:	695a      	ldr	r2, [r3, #20]
 8002902:	f884 5038 	strb.w	r5, [r4, #56]	; 0x38
 8002906:	f042 0280 	orr.w	r2, r2, #128	; 0x80
 800290a:	615a      	str	r2, [r3, #20]
 800290c:	4628      	mov	r0, r5
 800290e:	bd38      	pop	{r3, r4, r5, pc}
 8002910:	2001      	movs	r0, #1
 8002912:	e7fc      	b.n	800290e <HAL_UART_Transmit_DMA+0x5e>
 8002914:	2002      	movs	r0, #2
 8002916:	e7fa      	b.n	800290e <HAL_UART_Transmit_DMA+0x5e>
 8002918:	08002925 	.word	0x08002925
 800291c:	08002953 	.word	0x08002953
 8002920:	080029d5 	.word	0x080029d5

08002924 <UART_DMATransmitCplt>:
 8002924:	b508      	push	{r3, lr}
 8002926:	6803      	ldr	r3, [r0, #0]
 8002928:	6b82      	ldr	r2, [r0, #56]	; 0x38
 800292a:	681b      	ldr	r3, [r3, #0]
 800292c:	f413 7380 	ands.w	r3, r3, #256	; 0x100
 8002930:	d10a      	bne.n	8002948 <UART_DMATransmitCplt+0x24>
 8002932:	84d3      	strh	r3, [r2, #38]	; 0x26
 8002934:	6813      	ldr	r3, [r2, #0]
 8002936:	695a      	ldr	r2, [r3, #20]
 8002938:	f022 0280 	bic.w	r2, r2, #128	; 0x80
 800293c:	615a      	str	r2, [r3, #20]
 800293e:	68da      	ldr	r2, [r3, #12]
 8002940:	f042 0240 	orr.w	r2, r2, #64	; 0x40
 8002944:	60da      	str	r2, [r3, #12]
 8002946:	bd08      	pop	{r3, pc}
 8002948:	4610      	mov	r0, r2
 800294a:	f7fe f919 	bl	8000b80 <HAL_UART_TxCpltCallback>
 800294e:	e7fa      	b.n	8002946 <UART_DMATransmitCplt+0x22>

08002950 <HAL_UART_TxHalfCpltCallback>:
 8002950:	4770      	bx	lr

08002952 <UART_DMATxHalfCplt>:
 8002952:	b508      	push	{r3, lr}
 8002954:	6b80      	ldr	r0, [r0, #56]	; 0x38
 8002956:	f7ff fffb 	bl	8002950 <HAL_UART_TxHalfCpltCallback>
 800295a:	bd08      	pop	{r3, pc}

0800295c <UART_Receive_IT>:
 800295c:	f890 303a 	ldrb.w	r3, [r0, #58]	; 0x3a
 8002960:	2b22      	cmp	r3, #34	; 0x22
 8002962:	b510      	push	{r4, lr}
 8002964:	d133      	bne.n	80029ce <UART_Receive_IT+0x72>
 8002966:	6881      	ldr	r1, [r0, #8]
 8002968:	6904      	ldr	r4, [r0, #16]
 800296a:	6a83      	ldr	r3, [r0, #40]	; 0x28
 800296c:	6802      	ldr	r2, [r0, #0]
 800296e:	f5b1 5f80 	cmp.w	r1, #4096	; 0x1000
 8002972:	d123      	bne.n	80029bc <UART_Receive_IT+0x60>
 8002974:	6852      	ldr	r2, [r2, #4]
 8002976:	b9ec      	cbnz	r4, 80029b4 <UART_Receive_IT+0x58>
 8002978:	f3c2 0208 	ubfx	r2, r2, #0, #9
 800297c:	f823 2b02 	strh.w	r2, [r3], #2
 8002980:	6283      	str	r3, [r0, #40]	; 0x28
 8002982:	8dc4      	ldrh	r4, [r0, #46]	; 0x2e
 8002984:	3c01      	subs	r4, #1
 8002986:	b2a4      	uxth	r4, r4
 8002988:	85c4      	strh	r4, [r0, #46]	; 0x2e
 800298a:	b98c      	cbnz	r4, 80029b0 <UART_Receive_IT+0x54>
 800298c:	6803      	ldr	r3, [r0, #0]
 800298e:	68da      	ldr	r2, [r3, #12]
 8002990:	f022 0220 	bic.w	r2, r2, #32
 8002994:	60da      	str	r2, [r3, #12]
 8002996:	68da      	ldr	r2, [r3, #12]
 8002998:	f422 7280 	bic.w	r2, r2, #256	; 0x100
 800299c:	60da      	str	r2, [r3, #12]
 800299e:	695a      	ldr	r2, [r3, #20]
 80029a0:	f022 0201 	bic.w	r2, r2, #1
 80029a4:	615a      	str	r2, [r3, #20]
 80029a6:	2320      	movs	r3, #32
 80029a8:	f880 303a 	strb.w	r3, [r0, #58]	; 0x3a
 80029ac:	f7fe f8ee 	bl	8000b8c <HAL_UART_RxCpltCallback>
 80029b0:	2000      	movs	r0, #0
 80029b2:	e00d      	b.n	80029d0 <UART_Receive_IT+0x74>
 80029b4:	b2d2      	uxtb	r2, r2
 80029b6:	f823 2b01 	strh.w	r2, [r3], #1
 80029ba:	e7e1      	b.n	8002980 <UART_Receive_IT+0x24>
 80029bc:	1c59      	adds	r1, r3, #1
 80029be:	6852      	ldr	r2, [r2, #4]
 80029c0:	6281      	str	r1, [r0, #40]	; 0x28
 80029c2:	b90c      	cbnz	r4, 80029c8 <UART_Receive_IT+0x6c>
 80029c4:	701a      	strb	r2, [r3, #0]
 80029c6:	e7dc      	b.n	8002982 <UART_Receive_IT+0x26>
 80029c8:	f002 027f 	and.w	r2, r2, #127	; 0x7f
 80029cc:	e7fa      	b.n	80029c4 <UART_Receive_IT+0x68>
 80029ce:	2002      	movs	r0, #2
 80029d0:	bd10      	pop	{r4, pc}

080029d2 <HAL_UART_ErrorCallback>:
 80029d2:	4770      	bx	lr

080029d4 <UART_DMAError>:
 80029d4:	6b81      	ldr	r1, [r0, #56]	; 0x38
 80029d6:	b508      	push	{r3, lr}
 80029d8:	680b      	ldr	r3, [r1, #0]
 80029da:	695a      	ldr	r2, [r3, #20]
 80029dc:	f891 0039 	ldrb.w	r0, [r1, #57]	; 0x39
 80029e0:	2821      	cmp	r0, #33	; 0x21
 80029e2:	d10a      	bne.n	80029fa <UART_DMAError+0x26>
 80029e4:	0612      	lsls	r2, r2, #24
 80029e6:	d508      	bpl.n	80029fa <UART_DMAError+0x26>
 80029e8:	2200      	movs	r2, #0
 80029ea:	84ca      	strh	r2, [r1, #38]	; 0x26
 80029ec:	68da      	ldr	r2, [r3, #12]
 80029ee:	f022 02c0 	bic.w	r2, r2, #192	; 0xc0
 80029f2:	60da      	str	r2, [r3, #12]
 80029f4:	2220      	movs	r2, #32
 80029f6:	f881 2039 	strb.w	r2, [r1, #57]	; 0x39
 80029fa:	695b      	ldr	r3, [r3, #20]
 80029fc:	f891 203a 	ldrb.w	r2, [r1, #58]	; 0x3a
 8002a00:	2a22      	cmp	r2, #34	; 0x22
 8002a02:	d106      	bne.n	8002a12 <UART_DMAError+0x3e>
 8002a04:	065b      	lsls	r3, r3, #25
 8002a06:	d504      	bpl.n	8002a12 <UART_DMAError+0x3e>
 8002a08:	2300      	movs	r3, #0
 8002a0a:	85cb      	strh	r3, [r1, #46]	; 0x2e
 8002a0c:	4608      	mov	r0, r1
 8002a0e:	f7ff fdf7 	bl	8002600 <UART_EndRxTransfer>
 8002a12:	6bcb      	ldr	r3, [r1, #60]	; 0x3c
 8002a14:	f043 0310 	orr.w	r3, r3, #16
 8002a18:	63cb      	str	r3, [r1, #60]	; 0x3c
 8002a1a:	4608      	mov	r0, r1
 8002a1c:	f7ff ffd9 	bl	80029d2 <HAL_UART_ErrorCallback>
 8002a20:	bd08      	pop	{r3, pc}
	...

08002a24 <HAL_UART_IRQHandler>:
 8002a24:	6803      	ldr	r3, [r0, #0]
 8002a26:	681a      	ldr	r2, [r3, #0]
 8002a28:	68d9      	ldr	r1, [r3, #12]
 8002a2a:	b570      	push	{r4, r5, r6, lr}
 8002a2c:	0716      	lsls	r6, r2, #28
 8002a2e:	4604      	mov	r4, r0
 8002a30:	695d      	ldr	r5, [r3, #20]
 8002a32:	d107      	bne.n	8002a44 <HAL_UART_IRQHandler+0x20>
 8002a34:	0696      	lsls	r6, r2, #26
 8002a36:	d55a      	bpl.n	8002aee <HAL_UART_IRQHandler+0xca>
 8002a38:	068d      	lsls	r5, r1, #26
 8002a3a:	d558      	bpl.n	8002aee <HAL_UART_IRQHandler+0xca>
 8002a3c:	e8bd 4070 	ldmia.w	sp!, {r4, r5, r6, lr}
 8002a40:	f7ff bf8c 	b.w	800295c <UART_Receive_IT>
 8002a44:	f015 0501 	ands.w	r5, r5, #1
 8002a48:	d102      	bne.n	8002a50 <HAL_UART_IRQHandler+0x2c>
 8002a4a:	f411 7f90 	tst.w	r1, #288	; 0x120
 8002a4e:	d04e      	beq.n	8002aee <HAL_UART_IRQHandler+0xca>
 8002a50:	07d0      	lsls	r0, r2, #31
 8002a52:	d505      	bpl.n	8002a60 <HAL_UART_IRQHandler+0x3c>
 8002a54:	05cb      	lsls	r3, r1, #23
 8002a56:	bf42      	ittt	mi
 8002a58:	6be3      	ldrmi	r3, [r4, #60]	; 0x3c
 8002a5a:	f043 0301 	orrmi.w	r3, r3, #1
 8002a5e:	63e3      	strmi	r3, [r4, #60]	; 0x3c
 8002a60:	0756      	lsls	r6, r2, #29
 8002a62:	d504      	bpl.n	8002a6e <HAL_UART_IRQHandler+0x4a>
 8002a64:	b11d      	cbz	r5, 8002a6e <HAL_UART_IRQHandler+0x4a>
 8002a66:	6be3      	ldr	r3, [r4, #60]	; 0x3c
 8002a68:	f043 0302 	orr.w	r3, r3, #2
 8002a6c:	63e3      	str	r3, [r4, #60]	; 0x3c
 8002a6e:	0790      	lsls	r0, r2, #30
 8002a70:	d504      	bpl.n	8002a7c <HAL_UART_IRQHandler+0x58>
 8002a72:	b11d      	cbz	r5, 8002a7c <HAL_UART_IRQHandler+0x58>
 8002a74:	6be3      	ldr	r3, [r4, #60]	; 0x3c
 8002a76:	f043 0304 	orr.w	r3, r3, #4
 8002a7a:	63e3      	str	r3, [r4, #60]	; 0x3c
 8002a7c:	0713      	lsls	r3, r2, #28
 8002a7e:	d506      	bpl.n	8002a8e <HAL_UART_IRQHandler+0x6a>
 8002a80:	068e      	lsls	r6, r1, #26
 8002a82:	d400      	bmi.n	8002a86 <HAL_UART_IRQHandler+0x62>
 8002a84:	b11d      	cbz	r5, 8002a8e <HAL_UART_IRQHandler+0x6a>
 8002a86:	6be3      	ldr	r3, [r4, #60]	; 0x3c
 8002a88:	f043 0308 	orr.w	r3, r3, #8
 8002a8c:	63e3      	str	r3, [r4, #60]	; 0x3c
 8002a8e:	6be3      	ldr	r3, [r4, #60]	; 0x3c
 8002a90:	b343      	cbz	r3, 8002ae4 <HAL_UART_IRQHandler+0xc0>
 8002a92:	0695      	lsls	r5, r2, #26
 8002a94:	d504      	bpl.n	8002aa0 <HAL_UART_IRQHandler+0x7c>
 8002a96:	0688      	lsls	r0, r1, #26
 8002a98:	d502      	bpl.n	8002aa0 <HAL_UART_IRQHandler+0x7c>
 8002a9a:	4620      	mov	r0, r4
 8002a9c:	f7ff ff5e 	bl	800295c <UART_Receive_IT>
 8002aa0:	6823      	ldr	r3, [r4, #0]
 8002aa2:	695d      	ldr	r5, [r3, #20]
 8002aa4:	6be2      	ldr	r2, [r4, #60]	; 0x3c
 8002aa6:	0711      	lsls	r1, r2, #28
 8002aa8:	4620      	mov	r0, r4
 8002aaa:	d402      	bmi.n	8002ab2 <HAL_UART_IRQHandler+0x8e>
 8002aac:	f015 0540 	ands.w	r5, r5, #64	; 0x40
 8002ab0:	d019      	beq.n	8002ae6 <HAL_UART_IRQHandler+0xc2>
 8002ab2:	f7ff fda5 	bl	8002600 <UART_EndRxTransfer>
 8002ab6:	6823      	ldr	r3, [r4, #0]
 8002ab8:	695a      	ldr	r2, [r3, #20]
 8002aba:	0652      	lsls	r2, r2, #25
 8002abc:	d50f      	bpl.n	8002ade <HAL_UART_IRQHandler+0xba>
 8002abe:	695a      	ldr	r2, [r3, #20]
 8002ac0:	6b60      	ldr	r0, [r4, #52]	; 0x34
 8002ac2:	f022 0240 	bic.w	r2, r2, #64	; 0x40
 8002ac6:	615a      	str	r2, [r3, #20]
 8002ac8:	b148      	cbz	r0, 8002ade <HAL_UART_IRQHandler+0xba>
 8002aca:	4b26      	ldr	r3, [pc, #152]	; (8002b64 <HAL_UART_IRQHandler+0x140>)
 8002acc:	6503      	str	r3, [r0, #80]	; 0x50
 8002ace:	f7fe fb59 	bl	8001184 <HAL_DMA_Abort_IT>
 8002ad2:	b138      	cbz	r0, 8002ae4 <HAL_UART_IRQHandler+0xc0>
 8002ad4:	6b60      	ldr	r0, [r4, #52]	; 0x34
 8002ad6:	e8bd 4070 	ldmia.w	sp!, {r4, r5, r6, lr}
 8002ada:	6d03      	ldr	r3, [r0, #80]	; 0x50
 8002adc:	4718      	bx	r3
 8002ade:	4620      	mov	r0, r4
 8002ae0:	f7ff ff77 	bl	80029d2 <HAL_UART_ErrorCallback>
 8002ae4:	bd70      	pop	{r4, r5, r6, pc}
 8002ae6:	f7ff ff74 	bl	80029d2 <HAL_UART_ErrorCallback>
 8002aea:	63e5      	str	r5, [r4, #60]	; 0x3c
 8002aec:	e7fa      	b.n	8002ae4 <HAL_UART_IRQHandler+0xc0>
 8002aee:	0616      	lsls	r6, r2, #24
 8002af0:	d528      	bpl.n	8002b44 <HAL_UART_IRQHandler+0x120>
 8002af2:	060d      	lsls	r5, r1, #24
 8002af4:	d526      	bpl.n	8002b44 <HAL_UART_IRQHandler+0x120>
 8002af6:	f894 2039 	ldrb.w	r2, [r4, #57]	; 0x39
 8002afa:	2a21      	cmp	r2, #33	; 0x21
 8002afc:	d1f2      	bne.n	8002ae4 <HAL_UART_IRQHandler+0xc0>
 8002afe:	68a1      	ldr	r1, [r4, #8]
 8002b00:	6a22      	ldr	r2, [r4, #32]
 8002b02:	f5b1 5f80 	cmp.w	r1, #4096	; 0x1000
 8002b06:	d118      	bne.n	8002b3a <HAL_UART_IRQHandler+0x116>
 8002b08:	8811      	ldrh	r1, [r2, #0]
 8002b0a:	f3c1 0108 	ubfx	r1, r1, #0, #9
 8002b0e:	6059      	str	r1, [r3, #4]
 8002b10:	6921      	ldr	r1, [r4, #16]
 8002b12:	b981      	cbnz	r1, 8002b36 <HAL_UART_IRQHandler+0x112>
 8002b14:	3202      	adds	r2, #2
 8002b16:	6222      	str	r2, [r4, #32]
 8002b18:	8ce2      	ldrh	r2, [r4, #38]	; 0x26
 8002b1a:	3a01      	subs	r2, #1
 8002b1c:	b292      	uxth	r2, r2
 8002b1e:	84e2      	strh	r2, [r4, #38]	; 0x26
 8002b20:	2a00      	cmp	r2, #0
 8002b22:	d1df      	bne.n	8002ae4 <HAL_UART_IRQHandler+0xc0>
 8002b24:	68da      	ldr	r2, [r3, #12]
 8002b26:	f022 0280 	bic.w	r2, r2, #128	; 0x80
 8002b2a:	60da      	str	r2, [r3, #12]
 8002b2c:	68da      	ldr	r2, [r3, #12]
 8002b2e:	f042 0240 	orr.w	r2, r2, #64	; 0x40
 8002b32:	60da      	str	r2, [r3, #12]
 8002b34:	e7d6      	b.n	8002ae4 <HAL_UART_IRQHandler+0xc0>
 8002b36:	3201      	adds	r2, #1
 8002b38:	e7ed      	b.n	8002b16 <HAL_UART_IRQHandler+0xf2>
 8002b3a:	1c51      	adds	r1, r2, #1
 8002b3c:	6221      	str	r1, [r4, #32]
 8002b3e:	7812      	ldrb	r2, [r2, #0]
 8002b40:	605a      	str	r2, [r3, #4]
 8002b42:	e7e9      	b.n	8002b18 <HAL_UART_IRQHandler+0xf4>
 8002b44:	0650      	lsls	r0, r2, #25
 8002b46:	d5cd      	bpl.n	8002ae4 <HAL_UART_IRQHandler+0xc0>
 8002b48:	064a      	lsls	r2, r1, #25
 8002b4a:	d5cb      	bpl.n	8002ae4 <HAL_UART_IRQHandler+0xc0>
 8002b4c:	68da      	ldr	r2, [r3, #12]
 8002b4e:	f022 0240 	bic.w	r2, r2, #64	; 0x40
 8002b52:	60da      	str	r2, [r3, #12]
 8002b54:	2320      	movs	r3, #32
 8002b56:	f884 3039 	strb.w	r3, [r4, #57]	; 0x39
 8002b5a:	4620      	mov	r0, r4
 8002b5c:	f7fe f810 	bl	8000b80 <HAL_UART_TxCpltCallback>
 8002b60:	e7c0      	b.n	8002ae4 <HAL_UART_IRQHandler+0xc0>
 8002b62:	bf00      	nop
 8002b64:	08002b69 	.word	0x08002b69

08002b68 <UART_DMAAbortOnError>:
 8002b68:	b508      	push	{r3, lr}
 8002b6a:	6b80      	ldr	r0, [r0, #56]	; 0x38
 8002b6c:	2300      	movs	r3, #0
 8002b6e:	85c3      	strh	r3, [r0, #46]	; 0x2e
 8002b70:	84c3      	strh	r3, [r0, #38]	; 0x26
 8002b72:	f7ff ff2e 	bl	80029d2 <HAL_UART_ErrorCallback>
 8002b76:	bd08      	pop	{r3, pc}

08002b78 <__errno>:
 8002b78:	4b01      	ldr	r3, [pc, #4]	; (8002b80 <__errno+0x8>)
 8002b7a:	6818      	ldr	r0, [r3, #0]
 8002b7c:	4770      	bx	lr
 8002b7e:	bf00      	nop
 8002b80:	20000010 	.word	0x20000010

08002b84 <__libc_init_array>:
 8002b84:	b570      	push	{r4, r5, r6, lr}
 8002b86:	4e0d      	ldr	r6, [pc, #52]	; (8002bbc <__libc_init_array+0x38>)
 8002b88:	4c0d      	ldr	r4, [pc, #52]	; (8002bc0 <__libc_init_array+0x3c>)
 8002b8a:	1ba4      	subs	r4, r4, r6
 8002b8c:	10a4      	asrs	r4, r4, #2
 8002b8e:	2500      	movs	r5, #0
 8002b90:	42a5      	cmp	r5, r4
 8002b92:	d109      	bne.n	8002ba8 <__libc_init_array+0x24>
 8002b94:	4e0b      	ldr	r6, [pc, #44]	; (8002bc4 <__libc_init_array+0x40>)
 8002b96:	4c0c      	ldr	r4, [pc, #48]	; (8002bc8 <__libc_init_array+0x44>)
 8002b98:	f000 fc2e 	bl	80033f8 <_init>
 8002b9c:	1ba4      	subs	r4, r4, r6
 8002b9e:	10a4      	asrs	r4, r4, #2
 8002ba0:	2500      	movs	r5, #0
 8002ba2:	42a5      	cmp	r5, r4
 8002ba4:	d105      	bne.n	8002bb2 <__libc_init_array+0x2e>
 8002ba6:	bd70      	pop	{r4, r5, r6, pc}
 8002ba8:	f856 3025 	ldr.w	r3, [r6, r5, lsl #2]
 8002bac:	4798      	blx	r3
 8002bae:	3501      	adds	r5, #1
 8002bb0:	e7ee      	b.n	8002b90 <__libc_init_array+0xc>
 8002bb2:	f856 3025 	ldr.w	r3, [r6, r5, lsl #2]
 8002bb6:	4798      	blx	r3
 8002bb8:	3501      	adds	r5, #1
 8002bba:	e7f2      	b.n	8002ba2 <__libc_init_array+0x1e>
 8002bbc:	08003488 	.word	0x08003488
 8002bc0:	08003488 	.word	0x08003488
 8002bc4:	08003488 	.word	0x08003488
 8002bc8:	0800348c 	.word	0x0800348c

08002bcc <memset>:
 8002bcc:	4402      	add	r2, r0
 8002bce:	4603      	mov	r3, r0
 8002bd0:	4293      	cmp	r3, r2
 8002bd2:	d100      	bne.n	8002bd6 <memset+0xa>
 8002bd4:	4770      	bx	lr
 8002bd6:	f803 1b01 	strb.w	r1, [r3], #1
 8002bda:	e7f9      	b.n	8002bd0 <memset+0x4>

08002bdc <siprintf>:
 8002bdc:	b40e      	push	{r1, r2, r3}
 8002bde:	b500      	push	{lr}
 8002be0:	b09c      	sub	sp, #112	; 0x70
 8002be2:	ab1d      	add	r3, sp, #116	; 0x74
 8002be4:	9002      	str	r0, [sp, #8]
 8002be6:	9006      	str	r0, [sp, #24]
 8002be8:	f06f 4100 	mvn.w	r1, #2147483648	; 0x80000000
 8002bec:	4809      	ldr	r0, [pc, #36]	; (8002c14 <siprintf+0x38>)
 8002bee:	9107      	str	r1, [sp, #28]
 8002bf0:	9104      	str	r1, [sp, #16]
 8002bf2:	4909      	ldr	r1, [pc, #36]	; (8002c18 <siprintf+0x3c>)
 8002bf4:	f853 2b04 	ldr.w	r2, [r3], #4
 8002bf8:	9105      	str	r1, [sp, #20]
 8002bfa:	6800      	ldr	r0, [r0, #0]
 8002bfc:	9301      	str	r3, [sp, #4]
 8002bfe:	a902      	add	r1, sp, #8
 8002c00:	f000 f86e 	bl	8002ce0 <_svfiprintf_r>
 8002c04:	9b02      	ldr	r3, [sp, #8]
 8002c06:	2200      	movs	r2, #0
 8002c08:	701a      	strb	r2, [r3, #0]
 8002c0a:	b01c      	add	sp, #112	; 0x70
 8002c0c:	f85d eb04 	ldr.w	lr, [sp], #4
 8002c10:	b003      	add	sp, #12
 8002c12:	4770      	bx	lr
 8002c14:	20000010 	.word	0x20000010
 8002c18:	ffff0208 	.word	0xffff0208

08002c1c <strcpy>:
 8002c1c:	4603      	mov	r3, r0
 8002c1e:	f811 2b01 	ldrb.w	r2, [r1], #1
 8002c22:	f803 2b01 	strb.w	r2, [r3], #1
 8002c26:	2a00      	cmp	r2, #0
 8002c28:	d1f9      	bne.n	8002c1e <strcpy+0x2>
 8002c2a:	4770      	bx	lr

08002c2c <__ssputs_r>:
 8002c2c:	e92d 47f0 	stmdb	sp!, {r4, r5, r6, r7, r8, r9, sl, lr}
 8002c30:	688e      	ldr	r6, [r1, #8]
 8002c32:	429e      	cmp	r6, r3
 8002c34:	4682      	mov	sl, r0
 8002c36:	460c      	mov	r4, r1
 8002c38:	4690      	mov	r8, r2
 8002c3a:	4699      	mov	r9, r3
 8002c3c:	d837      	bhi.n	8002cae <__ssputs_r+0x82>
 8002c3e:	898a      	ldrh	r2, [r1, #12]
 8002c40:	f412 6f90 	tst.w	r2, #1152	; 0x480
 8002c44:	d031      	beq.n	8002caa <__ssputs_r+0x7e>
 8002c46:	6825      	ldr	r5, [r4, #0]
 8002c48:	6909      	ldr	r1, [r1, #16]
 8002c4a:	1a6f      	subs	r7, r5, r1
 8002c4c:	6965      	ldr	r5, [r4, #20]
 8002c4e:	2302      	movs	r3, #2
 8002c50:	eb05 0545 	add.w	r5, r5, r5, lsl #1
 8002c54:	fb95 f5f3 	sdiv	r5, r5, r3
 8002c58:	f109 0301 	add.w	r3, r9, #1
 8002c5c:	443b      	add	r3, r7
 8002c5e:	429d      	cmp	r5, r3
 8002c60:	bf38      	it	cc
 8002c62:	461d      	movcc	r5, r3
 8002c64:	0553      	lsls	r3, r2, #21
 8002c66:	d530      	bpl.n	8002cca <__ssputs_r+0x9e>
 8002c68:	4629      	mov	r1, r5
 8002c6a:	f000 fb2b 	bl	80032c4 <_malloc_r>
 8002c6e:	4606      	mov	r6, r0
 8002c70:	b950      	cbnz	r0, 8002c88 <__ssputs_r+0x5c>
 8002c72:	230c      	movs	r3, #12
 8002c74:	f8ca 3000 	str.w	r3, [sl]
 8002c78:	89a3      	ldrh	r3, [r4, #12]
 8002c7a:	f043 0340 	orr.w	r3, r3, #64	; 0x40
 8002c7e:	81a3      	strh	r3, [r4, #12]
 8002c80:	f04f 30ff 	mov.w	r0, #4294967295
 8002c84:	e8bd 87f0 	ldmia.w	sp!, {r4, r5, r6, r7, r8, r9, sl, pc}
 8002c88:	463a      	mov	r2, r7
 8002c8a:	6921      	ldr	r1, [r4, #16]
 8002c8c:	f000 faa8 	bl	80031e0 <memcpy>
 8002c90:	89a3      	ldrh	r3, [r4, #12]
 8002c92:	f423 6390 	bic.w	r3, r3, #1152	; 0x480
 8002c96:	f043 0380 	orr.w	r3, r3, #128	; 0x80
 8002c9a:	81a3      	strh	r3, [r4, #12]
 8002c9c:	6126      	str	r6, [r4, #16]
 8002c9e:	6165      	str	r5, [r4, #20]
 8002ca0:	443e      	add	r6, r7
 8002ca2:	1bed      	subs	r5, r5, r7
 8002ca4:	6026      	str	r6, [r4, #0]
 8002ca6:	60a5      	str	r5, [r4, #8]
 8002ca8:	464e      	mov	r6, r9
 8002caa:	454e      	cmp	r6, r9
 8002cac:	d900      	bls.n	8002cb0 <__ssputs_r+0x84>
 8002cae:	464e      	mov	r6, r9
 8002cb0:	4632      	mov	r2, r6
 8002cb2:	4641      	mov	r1, r8
 8002cb4:	6820      	ldr	r0, [r4, #0]
 8002cb6:	f000 fa9e 	bl	80031f6 <memmove>
 8002cba:	68a3      	ldr	r3, [r4, #8]
 8002cbc:	1b9b      	subs	r3, r3, r6
 8002cbe:	60a3      	str	r3, [r4, #8]
 8002cc0:	6823      	ldr	r3, [r4, #0]
 8002cc2:	441e      	add	r6, r3
 8002cc4:	6026      	str	r6, [r4, #0]
 8002cc6:	2000      	movs	r0, #0
 8002cc8:	e7dc      	b.n	8002c84 <__ssputs_r+0x58>
 8002cca:	462a      	mov	r2, r5
 8002ccc:	f000 fb54 	bl	8003378 <_realloc_r>
 8002cd0:	4606      	mov	r6, r0
 8002cd2:	2800      	cmp	r0, #0
 8002cd4:	d1e2      	bne.n	8002c9c <__ssputs_r+0x70>
 8002cd6:	6921      	ldr	r1, [r4, #16]
 8002cd8:	4650      	mov	r0, sl
 8002cda:	f000 faa5 	bl	8003228 <_free_r>
 8002cde:	e7c8      	b.n	8002c72 <__ssputs_r+0x46>

08002ce0 <_svfiprintf_r>:
 8002ce0:	e92d 4ff0 	stmdb	sp!, {r4, r5, r6, r7, r8, r9, sl, fp, lr}
 8002ce4:	461d      	mov	r5, r3
 8002ce6:	898b      	ldrh	r3, [r1, #12]
 8002ce8:	061f      	lsls	r7, r3, #24
 8002cea:	b09d      	sub	sp, #116	; 0x74
 8002cec:	4680      	mov	r8, r0
 8002cee:	460c      	mov	r4, r1
 8002cf0:	4616      	mov	r6, r2
 8002cf2:	d50f      	bpl.n	8002d14 <_svfiprintf_r+0x34>
 8002cf4:	690b      	ldr	r3, [r1, #16]
 8002cf6:	b96b      	cbnz	r3, 8002d14 <_svfiprintf_r+0x34>
 8002cf8:	2140      	movs	r1, #64	; 0x40
 8002cfa:	f000 fae3 	bl	80032c4 <_malloc_r>
 8002cfe:	6020      	str	r0, [r4, #0]
 8002d00:	6120      	str	r0, [r4, #16]
 8002d02:	b928      	cbnz	r0, 8002d10 <_svfiprintf_r+0x30>
 8002d04:	230c      	movs	r3, #12
 8002d06:	f8c8 3000 	str.w	r3, [r8]
 8002d0a:	f04f 30ff 	mov.w	r0, #4294967295
 8002d0e:	e0c8      	b.n	8002ea2 <_svfiprintf_r+0x1c2>
 8002d10:	2340      	movs	r3, #64	; 0x40
 8002d12:	6163      	str	r3, [r4, #20]
 8002d14:	2300      	movs	r3, #0
 8002d16:	9309      	str	r3, [sp, #36]	; 0x24
 8002d18:	2320      	movs	r3, #32
 8002d1a:	f88d 3029 	strb.w	r3, [sp, #41]	; 0x29
 8002d1e:	2330      	movs	r3, #48	; 0x30
 8002d20:	f88d 302a 	strb.w	r3, [sp, #42]	; 0x2a
 8002d24:	9503      	str	r5, [sp, #12]
 8002d26:	f04f 0b01 	mov.w	fp, #1
 8002d2a:	4637      	mov	r7, r6
 8002d2c:	463d      	mov	r5, r7
 8002d2e:	f815 3b01 	ldrb.w	r3, [r5], #1
 8002d32:	b10b      	cbz	r3, 8002d38 <_svfiprintf_r+0x58>
 8002d34:	2b25      	cmp	r3, #37	; 0x25
 8002d36:	d13e      	bne.n	8002db6 <_svfiprintf_r+0xd6>
 8002d38:	ebb7 0a06 	subs.w	sl, r7, r6
 8002d3c:	d00b      	beq.n	8002d56 <_svfiprintf_r+0x76>
 8002d3e:	4653      	mov	r3, sl
 8002d40:	4632      	mov	r2, r6
 8002d42:	4621      	mov	r1, r4
 8002d44:	4640      	mov	r0, r8
 8002d46:	f7ff ff71 	bl	8002c2c <__ssputs_r>
 8002d4a:	3001      	adds	r0, #1
 8002d4c:	f000 80a4 	beq.w	8002e98 <_svfiprintf_r+0x1b8>
 8002d50:	9b09      	ldr	r3, [sp, #36]	; 0x24
 8002d52:	4453      	add	r3, sl
 8002d54:	9309      	str	r3, [sp, #36]	; 0x24
 8002d56:	783b      	ldrb	r3, [r7, #0]
 8002d58:	2b00      	cmp	r3, #0
 8002d5a:	f000 809d 	beq.w	8002e98 <_svfiprintf_r+0x1b8>
 8002d5e:	2300      	movs	r3, #0
 8002d60:	f04f 32ff 	mov.w	r2, #4294967295
 8002d64:	e9cd 2305 	strd	r2, r3, [sp, #20]
 8002d68:	9304      	str	r3, [sp, #16]
 8002d6a:	9307      	str	r3, [sp, #28]
 8002d6c:	f88d 3053 	strb.w	r3, [sp, #83]	; 0x53
 8002d70:	931a      	str	r3, [sp, #104]	; 0x68
 8002d72:	462f      	mov	r7, r5
 8002d74:	2205      	movs	r2, #5
 8002d76:	f817 1b01 	ldrb.w	r1, [r7], #1
 8002d7a:	4850      	ldr	r0, [pc, #320]	; (8002ebc <_svfiprintf_r+0x1dc>)
 8002d7c:	f7fd fa48 	bl	8000210 <memchr>
 8002d80:	9b04      	ldr	r3, [sp, #16]
 8002d82:	b9d0      	cbnz	r0, 8002dba <_svfiprintf_r+0xda>
 8002d84:	06d9      	lsls	r1, r3, #27
 8002d86:	bf44      	itt	mi
 8002d88:	2220      	movmi	r2, #32
 8002d8a:	f88d 2053 	strbmi.w	r2, [sp, #83]	; 0x53
 8002d8e:	071a      	lsls	r2, r3, #28
 8002d90:	bf44      	itt	mi
 8002d92:	222b      	movmi	r2, #43	; 0x2b
 8002d94:	f88d 2053 	strbmi.w	r2, [sp, #83]	; 0x53
 8002d98:	782a      	ldrb	r2, [r5, #0]
 8002d9a:	2a2a      	cmp	r2, #42	; 0x2a
 8002d9c:	d015      	beq.n	8002dca <_svfiprintf_r+0xea>
 8002d9e:	9a07      	ldr	r2, [sp, #28]
 8002da0:	462f      	mov	r7, r5
 8002da2:	2000      	movs	r0, #0
 8002da4:	250a      	movs	r5, #10
 8002da6:	4639      	mov	r1, r7
 8002da8:	f811 3b01 	ldrb.w	r3, [r1], #1
 8002dac:	3b30      	subs	r3, #48	; 0x30
 8002dae:	2b09      	cmp	r3, #9
 8002db0:	d94d      	bls.n	8002e4e <_svfiprintf_r+0x16e>
 8002db2:	b1b8      	cbz	r0, 8002de4 <_svfiprintf_r+0x104>
 8002db4:	e00f      	b.n	8002dd6 <_svfiprintf_r+0xf6>
 8002db6:	462f      	mov	r7, r5
 8002db8:	e7b8      	b.n	8002d2c <_svfiprintf_r+0x4c>
 8002dba:	4a40      	ldr	r2, [pc, #256]	; (8002ebc <_svfiprintf_r+0x1dc>)
 8002dbc:	1a80      	subs	r0, r0, r2
 8002dbe:	fa0b f000 	lsl.w	r0, fp, r0
 8002dc2:	4318      	orrs	r0, r3
 8002dc4:	9004      	str	r0, [sp, #16]
 8002dc6:	463d      	mov	r5, r7
 8002dc8:	e7d3      	b.n	8002d72 <_svfiprintf_r+0x92>
 8002dca:	9a03      	ldr	r2, [sp, #12]
 8002dcc:	1d11      	adds	r1, r2, #4
 8002dce:	6812      	ldr	r2, [r2, #0]
 8002dd0:	9103      	str	r1, [sp, #12]
 8002dd2:	2a00      	cmp	r2, #0
 8002dd4:	db01      	blt.n	8002dda <_svfiprintf_r+0xfa>
 8002dd6:	9207      	str	r2, [sp, #28]
 8002dd8:	e004      	b.n	8002de4 <_svfiprintf_r+0x104>
 8002dda:	4252      	negs	r2, r2
 8002ddc:	f043 0302 	orr.w	r3, r3, #2
 8002de0:	9207      	str	r2, [sp, #28]
 8002de2:	9304      	str	r3, [sp, #16]
 8002de4:	783b      	ldrb	r3, [r7, #0]
 8002de6:	2b2e      	cmp	r3, #46	; 0x2e
 8002de8:	d10c      	bne.n	8002e04 <_svfiprintf_r+0x124>
 8002dea:	787b      	ldrb	r3, [r7, #1]
 8002dec:	2b2a      	cmp	r3, #42	; 0x2a
 8002dee:	d133      	bne.n	8002e58 <_svfiprintf_r+0x178>
 8002df0:	9b03      	ldr	r3, [sp, #12]
 8002df2:	1d1a      	adds	r2, r3, #4
 8002df4:	681b      	ldr	r3, [r3, #0]
 8002df6:	9203      	str	r2, [sp, #12]
 8002df8:	2b00      	cmp	r3, #0
 8002dfa:	bfb8      	it	lt
 8002dfc:	f04f 33ff 	movlt.w	r3, #4294967295
 8002e00:	3702      	adds	r7, #2
 8002e02:	9305      	str	r3, [sp, #20]
 8002e04:	4d2e      	ldr	r5, [pc, #184]	; (8002ec0 <_svfiprintf_r+0x1e0>)
 8002e06:	7839      	ldrb	r1, [r7, #0]
 8002e08:	2203      	movs	r2, #3
 8002e0a:	4628      	mov	r0, r5
 8002e0c:	f7fd fa00 	bl	8000210 <memchr>
 8002e10:	b138      	cbz	r0, 8002e22 <_svfiprintf_r+0x142>
 8002e12:	2340      	movs	r3, #64	; 0x40
 8002e14:	1b40      	subs	r0, r0, r5
 8002e16:	fa03 f000 	lsl.w	r0, r3, r0
 8002e1a:	9b04      	ldr	r3, [sp, #16]
 8002e1c:	4303      	orrs	r3, r0
 8002e1e:	3701      	adds	r7, #1
 8002e20:	9304      	str	r3, [sp, #16]
 8002e22:	7839      	ldrb	r1, [r7, #0]
 8002e24:	4827      	ldr	r0, [pc, #156]	; (8002ec4 <_svfiprintf_r+0x1e4>)
 8002e26:	f88d 1028 	strb.w	r1, [sp, #40]	; 0x28
 8002e2a:	2206      	movs	r2, #6
 8002e2c:	1c7e      	adds	r6, r7, #1
 8002e2e:	f7fd f9ef 	bl	8000210 <memchr>
 8002e32:	2800      	cmp	r0, #0
 8002e34:	d038      	beq.n	8002ea8 <_svfiprintf_r+0x1c8>
 8002e36:	4b24      	ldr	r3, [pc, #144]	; (8002ec8 <_svfiprintf_r+0x1e8>)
 8002e38:	bb13      	cbnz	r3, 8002e80 <_svfiprintf_r+0x1a0>
 8002e3a:	9b03      	ldr	r3, [sp, #12]
 8002e3c:	3307      	adds	r3, #7
 8002e3e:	f023 0307 	bic.w	r3, r3, #7
 8002e42:	3308      	adds	r3, #8
 8002e44:	9303      	str	r3, [sp, #12]
 8002e46:	9b09      	ldr	r3, [sp, #36]	; 0x24
 8002e48:	444b      	add	r3, r9
 8002e4a:	9309      	str	r3, [sp, #36]	; 0x24
 8002e4c:	e76d      	b.n	8002d2a <_svfiprintf_r+0x4a>
 8002e4e:	fb05 3202 	mla	r2, r5, r2, r3
 8002e52:	2001      	movs	r0, #1
 8002e54:	460f      	mov	r7, r1
 8002e56:	e7a6      	b.n	8002da6 <_svfiprintf_r+0xc6>
 8002e58:	2300      	movs	r3, #0
 8002e5a:	3701      	adds	r7, #1
 8002e5c:	9305      	str	r3, [sp, #20]
 8002e5e:	4619      	mov	r1, r3
 8002e60:	250a      	movs	r5, #10
 8002e62:	4638      	mov	r0, r7
 8002e64:	f810 2b01 	ldrb.w	r2, [r0], #1
 8002e68:	3a30      	subs	r2, #48	; 0x30
 8002e6a:	2a09      	cmp	r2, #9
 8002e6c:	d903      	bls.n	8002e76 <_svfiprintf_r+0x196>
 8002e6e:	2b00      	cmp	r3, #0
 8002e70:	d0c8      	beq.n	8002e04 <_svfiprintf_r+0x124>
 8002e72:	9105      	str	r1, [sp, #20]
 8002e74:	e7c6      	b.n	8002e04 <_svfiprintf_r+0x124>
 8002e76:	fb05 2101 	mla	r1, r5, r1, r2
 8002e7a:	2301      	movs	r3, #1
 8002e7c:	4607      	mov	r7, r0
 8002e7e:	e7f0      	b.n	8002e62 <_svfiprintf_r+0x182>
 8002e80:	ab03      	add	r3, sp, #12
 8002e82:	9300      	str	r3, [sp, #0]
 8002e84:	4622      	mov	r2, r4
 8002e86:	4b11      	ldr	r3, [pc, #68]	; (8002ecc <_svfiprintf_r+0x1ec>)
 8002e88:	a904      	add	r1, sp, #16
 8002e8a:	4640      	mov	r0, r8
 8002e8c:	f3af 8000 	nop.w
 8002e90:	f1b0 3fff 	cmp.w	r0, #4294967295
 8002e94:	4681      	mov	r9, r0
 8002e96:	d1d6      	bne.n	8002e46 <_svfiprintf_r+0x166>
 8002e98:	89a3      	ldrh	r3, [r4, #12]
 8002e9a:	065b      	lsls	r3, r3, #25
 8002e9c:	f53f af35 	bmi.w	8002d0a <_svfiprintf_r+0x2a>
 8002ea0:	9809      	ldr	r0, [sp, #36]	; 0x24
 8002ea2:	b01d      	add	sp, #116	; 0x74
 8002ea4:	e8bd 8ff0 	ldmia.w	sp!, {r4, r5, r6, r7, r8, r9, sl, fp, pc}
 8002ea8:	ab03      	add	r3, sp, #12
 8002eaa:	9300      	str	r3, [sp, #0]
 8002eac:	4622      	mov	r2, r4
 8002eae:	4b07      	ldr	r3, [pc, #28]	; (8002ecc <_svfiprintf_r+0x1ec>)
 8002eb0:	a904      	add	r1, sp, #16
 8002eb2:	4640      	mov	r0, r8
 8002eb4:	f000 f882 	bl	8002fbc <_printf_i>
 8002eb8:	e7ea      	b.n	8002e90 <_svfiprintf_r+0x1b0>
 8002eba:	bf00      	nop
 8002ebc:	0800344a 	.word	0x0800344a
 8002ec0:	08003450 	.word	0x08003450
 8002ec4:	08003454 	.word	0x08003454
 8002ec8:	00000000 	.word	0x00000000
 8002ecc:	08002c2d 	.word	0x08002c2d

08002ed0 <_printf_common>:
 8002ed0:	e92d 47f0 	stmdb	sp!, {r4, r5, r6, r7, r8, r9, sl, lr}
 8002ed4:	4691      	mov	r9, r2
 8002ed6:	461f      	mov	r7, r3
 8002ed8:	688a      	ldr	r2, [r1, #8]
 8002eda:	690b      	ldr	r3, [r1, #16]
 8002edc:	f8dd 8020 	ldr.w	r8, [sp, #32]
 8002ee0:	4293      	cmp	r3, r2
 8002ee2:	bfb8      	it	lt
 8002ee4:	4613      	movlt	r3, r2
 8002ee6:	f8c9 3000 	str.w	r3, [r9]
 8002eea:	f891 2043 	ldrb.w	r2, [r1, #67]	; 0x43
 8002eee:	4606      	mov	r6, r0
 8002ef0:	460c      	mov	r4, r1
 8002ef2:	b112      	cbz	r2, 8002efa <_printf_common+0x2a>
 8002ef4:	3301      	adds	r3, #1
 8002ef6:	f8c9 3000 	str.w	r3, [r9]
 8002efa:	6823      	ldr	r3, [r4, #0]
 8002efc:	0699      	lsls	r1, r3, #26
 8002efe:	bf42      	ittt	mi
 8002f00:	f8d9 3000 	ldrmi.w	r3, [r9]
 8002f04:	3302      	addmi	r3, #2
 8002f06:	f8c9 3000 	strmi.w	r3, [r9]
 8002f0a:	6825      	ldr	r5, [r4, #0]
 8002f0c:	f015 0506 	ands.w	r5, r5, #6
 8002f10:	d107      	bne.n	8002f22 <_printf_common+0x52>
 8002f12:	f104 0a19 	add.w	sl, r4, #25
 8002f16:	68e3      	ldr	r3, [r4, #12]
 8002f18:	f8d9 2000 	ldr.w	r2, [r9]
 8002f1c:	1a9b      	subs	r3, r3, r2
 8002f1e:	42ab      	cmp	r3, r5
 8002f20:	dc28      	bgt.n	8002f74 <_printf_common+0xa4>
 8002f22:	f894 3043 	ldrb.w	r3, [r4, #67]	; 0x43
 8002f26:	6822      	ldr	r2, [r4, #0]
 8002f28:	3300      	adds	r3, #0
 8002f2a:	bf18      	it	ne
 8002f2c:	2301      	movne	r3, #1
 8002f2e:	0692      	lsls	r2, r2, #26
 8002f30:	d42d      	bmi.n	8002f8e <_printf_common+0xbe>
 8002f32:	f104 0243 	add.w	r2, r4, #67	; 0x43
 8002f36:	4639      	mov	r1, r7
 8002f38:	4630      	mov	r0, r6
 8002f3a:	47c0      	blx	r8
 8002f3c:	3001      	adds	r0, #1
 8002f3e:	d020      	beq.n	8002f82 <_printf_common+0xb2>
 8002f40:	6823      	ldr	r3, [r4, #0]
 8002f42:	68e5      	ldr	r5, [r4, #12]
 8002f44:	f8d9 2000 	ldr.w	r2, [r9]
 8002f48:	f003 0306 	and.w	r3, r3, #6
 8002f4c:	2b04      	cmp	r3, #4
 8002f4e:	bf08      	it	eq
 8002f50:	1aad      	subeq	r5, r5, r2
 8002f52:	68a3      	ldr	r3, [r4, #8]
 8002f54:	6922      	ldr	r2, [r4, #16]
 8002f56:	bf0c      	ite	eq
 8002f58:	ea25 75e5 	biceq.w	r5, r5, r5, asr #31
 8002f5c:	2500      	movne	r5, #0
 8002f5e:	4293      	cmp	r3, r2
 8002f60:	bfc4      	itt	gt
 8002f62:	1a9b      	subgt	r3, r3, r2
 8002f64:	18ed      	addgt	r5, r5, r3
 8002f66:	f04f 0900 	mov.w	r9, #0
 8002f6a:	341a      	adds	r4, #26
 8002f6c:	454d      	cmp	r5, r9
 8002f6e:	d11a      	bne.n	8002fa6 <_printf_common+0xd6>
 8002f70:	2000      	movs	r0, #0
 8002f72:	e008      	b.n	8002f86 <_printf_common+0xb6>
 8002f74:	2301      	movs	r3, #1
 8002f76:	4652      	mov	r2, sl
 8002f78:	4639      	mov	r1, r7
 8002f7a:	4630      	mov	r0, r6
 8002f7c:	47c0      	blx	r8
 8002f7e:	3001      	adds	r0, #1
 8002f80:	d103      	bne.n	8002f8a <_printf_common+0xba>
 8002f82:	f04f 30ff 	mov.w	r0, #4294967295
 8002f86:	e8bd 87f0 	ldmia.w	sp!, {r4, r5, r6, r7, r8, r9, sl, pc}
 8002f8a:	3501      	adds	r5, #1
 8002f8c:	e7c3      	b.n	8002f16 <_printf_common+0x46>
 8002f8e:	18e1      	adds	r1, r4, r3
 8002f90:	1c5a      	adds	r2, r3, #1
 8002f92:	2030      	movs	r0, #48	; 0x30
 8002f94:	f881 0043 	strb.w	r0, [r1, #67]	; 0x43
 8002f98:	4422      	add	r2, r4
 8002f9a:	f894 1045 	ldrb.w	r1, [r4, #69]	; 0x45
 8002f9e:	f882 1043 	strb.w	r1, [r2, #67]	; 0x43
 8002fa2:	3302      	adds	r3, #2
 8002fa4:	e7c5      	b.n	8002f32 <_printf_common+0x62>
 8002fa6:	2301      	movs	r3, #1
 8002fa8:	4622      	mov	r2, r4
 8002faa:	4639      	mov	r1, r7
 8002fac:	4630      	mov	r0, r6
 8002fae:	47c0      	blx	r8
 8002fb0:	3001      	adds	r0, #1
 8002fb2:	d0e6      	beq.n	8002f82 <_printf_common+0xb2>
 8002fb4:	f109 0901 	add.w	r9, r9, #1
 8002fb8:	e7d8      	b.n	8002f6c <_printf_common+0x9c>
	...

08002fbc <_printf_i>:
 8002fbc:	e92d 43f0 	stmdb	sp!, {r4, r5, r6, r7, r8, r9, lr}
 8002fc0:	f101 0c43 	add.w	ip, r1, #67	; 0x43
 8002fc4:	460c      	mov	r4, r1
 8002fc6:	7e09      	ldrb	r1, [r1, #24]
 8002fc8:	b085      	sub	sp, #20
 8002fca:	296e      	cmp	r1, #110	; 0x6e
 8002fcc:	4617      	mov	r7, r2
 8002fce:	4606      	mov	r6, r0
 8002fd0:	4698      	mov	r8, r3
 8002fd2:	9a0c      	ldr	r2, [sp, #48]	; 0x30
 8002fd4:	f000 80b3 	beq.w	800313e <_printf_i+0x182>
 8002fd8:	d822      	bhi.n	8003020 <_printf_i+0x64>
 8002fda:	2963      	cmp	r1, #99	; 0x63
 8002fdc:	d036      	beq.n	800304c <_printf_i+0x90>
 8002fde:	d80a      	bhi.n	8002ff6 <_printf_i+0x3a>
 8002fe0:	2900      	cmp	r1, #0
 8002fe2:	f000 80b9 	beq.w	8003158 <_printf_i+0x19c>
 8002fe6:	2958      	cmp	r1, #88	; 0x58
 8002fe8:	f000 8083 	beq.w	80030f2 <_printf_i+0x136>
 8002fec:	f104 0542 	add.w	r5, r4, #66	; 0x42
 8002ff0:	f884 1042 	strb.w	r1, [r4, #66]	; 0x42
 8002ff4:	e032      	b.n	800305c <_printf_i+0xa0>
 8002ff6:	2964      	cmp	r1, #100	; 0x64
 8002ff8:	d001      	beq.n	8002ffe <_printf_i+0x42>
 8002ffa:	2969      	cmp	r1, #105	; 0x69
 8002ffc:	d1f6      	bne.n	8002fec <_printf_i+0x30>
 8002ffe:	6820      	ldr	r0, [r4, #0]
 8003000:	6813      	ldr	r3, [r2, #0]
 8003002:	0605      	lsls	r5, r0, #24
 8003004:	f103 0104 	add.w	r1, r3, #4
 8003008:	d52a      	bpl.n	8003060 <_printf_i+0xa4>
 800300a:	681b      	ldr	r3, [r3, #0]
 800300c:	6011      	str	r1, [r2, #0]
 800300e:	2b00      	cmp	r3, #0
 8003010:	da03      	bge.n	800301a <_printf_i+0x5e>
 8003012:	222d      	movs	r2, #45	; 0x2d
 8003014:	425b      	negs	r3, r3
 8003016:	f884 2043 	strb.w	r2, [r4, #67]	; 0x43
 800301a:	486f      	ldr	r0, [pc, #444]	; (80031d8 <_printf_i+0x21c>)
 800301c:	220a      	movs	r2, #10
 800301e:	e039      	b.n	8003094 <_printf_i+0xd8>
 8003020:	2973      	cmp	r1, #115	; 0x73
 8003022:	f000 809d 	beq.w	8003160 <_printf_i+0x1a4>
 8003026:	d808      	bhi.n	800303a <_printf_i+0x7e>
 8003028:	296f      	cmp	r1, #111	; 0x6f
 800302a:	d020      	beq.n	800306e <_printf_i+0xb2>
 800302c:	2970      	cmp	r1, #112	; 0x70
 800302e:	d1dd      	bne.n	8002fec <_printf_i+0x30>
 8003030:	6823      	ldr	r3, [r4, #0]
 8003032:	f043 0320 	orr.w	r3, r3, #32
 8003036:	6023      	str	r3, [r4, #0]
 8003038:	e003      	b.n	8003042 <_printf_i+0x86>
 800303a:	2975      	cmp	r1, #117	; 0x75
 800303c:	d017      	beq.n	800306e <_printf_i+0xb2>
 800303e:	2978      	cmp	r1, #120	; 0x78
 8003040:	d1d4      	bne.n	8002fec <_printf_i+0x30>
 8003042:	2378      	movs	r3, #120	; 0x78
 8003044:	f884 3045 	strb.w	r3, [r4, #69]	; 0x45
 8003048:	4864      	ldr	r0, [pc, #400]	; (80031dc <_printf_i+0x220>)
 800304a:	e055      	b.n	80030f8 <_printf_i+0x13c>
 800304c:	6813      	ldr	r3, [r2, #0]
 800304e:	1d19      	adds	r1, r3, #4
 8003050:	681b      	ldr	r3, [r3, #0]
 8003052:	6011      	str	r1, [r2, #0]
 8003054:	f104 0542 	add.w	r5, r4, #66	; 0x42
 8003058:	f884 3042 	strb.w	r3, [r4, #66]	; 0x42
 800305c:	2301      	movs	r3, #1
 800305e:	e08c      	b.n	800317a <_printf_i+0x1be>
 8003060:	681b      	ldr	r3, [r3, #0]
 8003062:	6011      	str	r1, [r2, #0]
 8003064:	f010 0f40 	tst.w	r0, #64	; 0x40
 8003068:	bf18      	it	ne
 800306a:	b21b      	sxthne	r3, r3
 800306c:	e7cf      	b.n	800300e <_printf_i+0x52>
 800306e:	6813      	ldr	r3, [r2, #0]
 8003070:	6825      	ldr	r5, [r4, #0]
 8003072:	1d18      	adds	r0, r3, #4
 8003074:	6010      	str	r0, [r2, #0]
 8003076:	0628      	lsls	r0, r5, #24
 8003078:	d501      	bpl.n	800307e <_printf_i+0xc2>
 800307a:	681b      	ldr	r3, [r3, #0]
 800307c:	e002      	b.n	8003084 <_printf_i+0xc8>
 800307e:	0668      	lsls	r0, r5, #25
 8003080:	d5fb      	bpl.n	800307a <_printf_i+0xbe>
 8003082:	881b      	ldrh	r3, [r3, #0]
 8003084:	4854      	ldr	r0, [pc, #336]	; (80031d8 <_printf_i+0x21c>)
 8003086:	296f      	cmp	r1, #111	; 0x6f
 8003088:	bf14      	ite	ne
 800308a:	220a      	movne	r2, #10
 800308c:	2208      	moveq	r2, #8
 800308e:	2100      	movs	r1, #0
 8003090:	f884 1043 	strb.w	r1, [r4, #67]	; 0x43
 8003094:	6865      	ldr	r5, [r4, #4]
 8003096:	60a5      	str	r5, [r4, #8]
 8003098:	2d00      	cmp	r5, #0
 800309a:	f2c0 8095 	blt.w	80031c8 <_printf_i+0x20c>
 800309e:	6821      	ldr	r1, [r4, #0]
 80030a0:	f021 0104 	bic.w	r1, r1, #4
 80030a4:	6021      	str	r1, [r4, #0]
 80030a6:	2b00      	cmp	r3, #0
 80030a8:	d13d      	bne.n	8003126 <_printf_i+0x16a>
 80030aa:	2d00      	cmp	r5, #0
 80030ac:	f040 808e 	bne.w	80031cc <_printf_i+0x210>
 80030b0:	4665      	mov	r5, ip
 80030b2:	2a08      	cmp	r2, #8
 80030b4:	d10b      	bne.n	80030ce <_printf_i+0x112>
 80030b6:	6823      	ldr	r3, [r4, #0]
 80030b8:	07db      	lsls	r3, r3, #31
 80030ba:	d508      	bpl.n	80030ce <_printf_i+0x112>
 80030bc:	6923      	ldr	r3, [r4, #16]
 80030be:	6862      	ldr	r2, [r4, #4]
 80030c0:	429a      	cmp	r2, r3
 80030c2:	bfde      	ittt	le
 80030c4:	2330      	movle	r3, #48	; 0x30
 80030c6:	f805 3c01 	strble.w	r3, [r5, #-1]
 80030ca:	f105 35ff 	addle.w	r5, r5, #4294967295
 80030ce:	ebac 0305 	sub.w	r3, ip, r5
 80030d2:	6123      	str	r3, [r4, #16]
 80030d4:	f8cd 8000 	str.w	r8, [sp]
 80030d8:	463b      	mov	r3, r7
 80030da:	aa03      	add	r2, sp, #12
 80030dc:	4621      	mov	r1, r4
 80030de:	4630      	mov	r0, r6
 80030e0:	f7ff fef6 	bl	8002ed0 <_printf_common>
 80030e4:	3001      	adds	r0, #1
 80030e6:	d14d      	bne.n	8003184 <_printf_i+0x1c8>
 80030e8:	f04f 30ff 	mov.w	r0, #4294967295
 80030ec:	b005      	add	sp, #20
 80030ee:	e8bd 83f0 	ldmia.w	sp!, {r4, r5, r6, r7, r8, r9, pc}
 80030f2:	4839      	ldr	r0, [pc, #228]	; (80031d8 <_printf_i+0x21c>)
 80030f4:	f884 1045 	strb.w	r1, [r4, #69]	; 0x45
 80030f8:	6813      	ldr	r3, [r2, #0]
 80030fa:	6821      	ldr	r1, [r4, #0]
 80030fc:	1d1d      	adds	r5, r3, #4
 80030fe:	681b      	ldr	r3, [r3, #0]
 8003100:	6015      	str	r5, [r2, #0]
 8003102:	060a      	lsls	r2, r1, #24
 8003104:	d50b      	bpl.n	800311e <_printf_i+0x162>
 8003106:	07ca      	lsls	r2, r1, #31
 8003108:	bf44      	itt	mi
 800310a:	f041 0120 	orrmi.w	r1, r1, #32
 800310e:	6021      	strmi	r1, [r4, #0]
 8003110:	b91b      	cbnz	r3, 800311a <_printf_i+0x15e>
 8003112:	6822      	ldr	r2, [r4, #0]
 8003114:	f022 0220 	bic.w	r2, r2, #32
 8003118:	6022      	str	r2, [r4, #0]
 800311a:	2210      	movs	r2, #16
 800311c:	e7b7      	b.n	800308e <_printf_i+0xd2>
 800311e:	064d      	lsls	r5, r1, #25
 8003120:	bf48      	it	mi
 8003122:	b29b      	uxthmi	r3, r3
 8003124:	e7ef      	b.n	8003106 <_printf_i+0x14a>
 8003126:	4665      	mov	r5, ip
 8003128:	fbb3 f1f2 	udiv	r1, r3, r2
 800312c:	fb02 3311 	mls	r3, r2, r1, r3
 8003130:	5cc3      	ldrb	r3, [r0, r3]
 8003132:	f805 3d01 	strb.w	r3, [r5, #-1]!
 8003136:	460b      	mov	r3, r1
 8003138:	2900      	cmp	r1, #0
 800313a:	d1f5      	bne.n	8003128 <_printf_i+0x16c>
 800313c:	e7b9      	b.n	80030b2 <_printf_i+0xf6>
 800313e:	6813      	ldr	r3, [r2, #0]
 8003140:	6825      	ldr	r5, [r4, #0]
 8003142:	6961      	ldr	r1, [r4, #20]
 8003144:	1d18      	adds	r0, r3, #4
 8003146:	6010      	str	r0, [r2, #0]
 8003148:	0628      	lsls	r0, r5, #24
 800314a:	681b      	ldr	r3, [r3, #0]
 800314c:	d501      	bpl.n	8003152 <_printf_i+0x196>
 800314e:	6019      	str	r1, [r3, #0]
 8003150:	e002      	b.n	8003158 <_printf_i+0x19c>
 8003152:	066a      	lsls	r2, r5, #25
 8003154:	d5fb      	bpl.n	800314e <_printf_i+0x192>
 8003156:	8019      	strh	r1, [r3, #0]
 8003158:	2300      	movs	r3, #0
 800315a:	6123      	str	r3, [r4, #16]
 800315c:	4665      	mov	r5, ip
 800315e:	e7b9      	b.n	80030d4 <_printf_i+0x118>
 8003160:	6813      	ldr	r3, [r2, #0]
 8003162:	1d19      	adds	r1, r3, #4
 8003164:	6011      	str	r1, [r2, #0]
 8003166:	681d      	ldr	r5, [r3, #0]
 8003168:	6862      	ldr	r2, [r4, #4]
 800316a:	2100      	movs	r1, #0
 800316c:	4628      	mov	r0, r5
 800316e:	f7fd f84f 	bl	8000210 <memchr>
 8003172:	b108      	cbz	r0, 8003178 <_printf_i+0x1bc>
 8003174:	1b40      	subs	r0, r0, r5
 8003176:	6060      	str	r0, [r4, #4]
 8003178:	6863      	ldr	r3, [r4, #4]
 800317a:	6123      	str	r3, [r4, #16]
 800317c:	2300      	movs	r3, #0
 800317e:	f884 3043 	strb.w	r3, [r4, #67]	; 0x43
 8003182:	e7a7      	b.n	80030d4 <_printf_i+0x118>
 8003184:	6923      	ldr	r3, [r4, #16]
 8003186:	462a      	mov	r2, r5
 8003188:	4639      	mov	r1, r7
 800318a:	4630      	mov	r0, r6
 800318c:	47c0      	blx	r8
 800318e:	3001      	adds	r0, #1
 8003190:	d0aa      	beq.n	80030e8 <_printf_i+0x12c>
 8003192:	6823      	ldr	r3, [r4, #0]
 8003194:	079b      	lsls	r3, r3, #30
 8003196:	d413      	bmi.n	80031c0 <_printf_i+0x204>
 8003198:	68e0      	ldr	r0, [r4, #12]
 800319a:	9b03      	ldr	r3, [sp, #12]
 800319c:	4298      	cmp	r0, r3
 800319e:	bfb8      	it	lt
 80031a0:	4618      	movlt	r0, r3
 80031a2:	e7a3      	b.n	80030ec <_printf_i+0x130>
 80031a4:	2301      	movs	r3, #1
 80031a6:	464a      	mov	r2, r9
 80031a8:	4639      	mov	r1, r7
 80031aa:	4630      	mov	r0, r6
 80031ac:	47c0      	blx	r8
 80031ae:	3001      	adds	r0, #1
 80031b0:	d09a      	beq.n	80030e8 <_printf_i+0x12c>
 80031b2:	3501      	adds	r5, #1
 80031b4:	68e3      	ldr	r3, [r4, #12]
 80031b6:	9a03      	ldr	r2, [sp, #12]
 80031b8:	1a9b      	subs	r3, r3, r2
 80031ba:	42ab      	cmp	r3, r5
 80031bc:	dcf2      	bgt.n	80031a4 <_printf_i+0x1e8>
 80031be:	e7eb      	b.n	8003198 <_printf_i+0x1dc>
 80031c0:	2500      	movs	r5, #0
 80031c2:	f104 0919 	add.w	r9, r4, #25
 80031c6:	e7f5      	b.n	80031b4 <_printf_i+0x1f8>
 80031c8:	2b00      	cmp	r3, #0
 80031ca:	d1ac      	bne.n	8003126 <_printf_i+0x16a>
 80031cc:	7803      	ldrb	r3, [r0, #0]
 80031ce:	f884 3042 	strb.w	r3, [r4, #66]	; 0x42
 80031d2:	f104 0542 	add.w	r5, r4, #66	; 0x42
 80031d6:	e76c      	b.n	80030b2 <_printf_i+0xf6>
 80031d8:	0800345b 	.word	0x0800345b
 80031dc:	0800346c 	.word	0x0800346c

080031e0 <memcpy>:
 80031e0:	b510      	push	{r4, lr}
 80031e2:	1e43      	subs	r3, r0, #1
 80031e4:	440a      	add	r2, r1
 80031e6:	4291      	cmp	r1, r2
 80031e8:	d100      	bne.n	80031ec <memcpy+0xc>
 80031ea:	bd10      	pop	{r4, pc}
 80031ec:	f811 4b01 	ldrb.w	r4, [r1], #1
 80031f0:	f803 4f01 	strb.w	r4, [r3, #1]!
 80031f4:	e7f7      	b.n	80031e6 <memcpy+0x6>

080031f6 <memmove>:
 80031f6:	4288      	cmp	r0, r1
 80031f8:	b510      	push	{r4, lr}
 80031fa:	eb01 0302 	add.w	r3, r1, r2
 80031fe:	d807      	bhi.n	8003210 <memmove+0x1a>
 8003200:	1e42      	subs	r2, r0, #1
 8003202:	4299      	cmp	r1, r3
 8003204:	d00a      	beq.n	800321c <memmove+0x26>
 8003206:	f811 4b01 	ldrb.w	r4, [r1], #1
 800320a:	f802 4f01 	strb.w	r4, [r2, #1]!
 800320e:	e7f8      	b.n	8003202 <memmove+0xc>
 8003210:	4283      	cmp	r3, r0
 8003212:	d9f5      	bls.n	8003200 <memmove+0xa>
 8003214:	1881      	adds	r1, r0, r2
 8003216:	1ad2      	subs	r2, r2, r3
 8003218:	42d3      	cmn	r3, r2
 800321a:	d100      	bne.n	800321e <memmove+0x28>
 800321c:	bd10      	pop	{r4, pc}
 800321e:	f813 4d01 	ldrb.w	r4, [r3, #-1]!
 8003222:	f801 4d01 	strb.w	r4, [r1, #-1]!
 8003226:	e7f7      	b.n	8003218 <memmove+0x22>

08003228 <_free_r>:
 8003228:	b538      	push	{r3, r4, r5, lr}
 800322a:	4605      	mov	r5, r0
 800322c:	2900      	cmp	r1, #0
 800322e:	d045      	beq.n	80032bc <_free_r+0x94>
 8003230:	f851 3c04 	ldr.w	r3, [r1, #-4]
 8003234:	1f0c      	subs	r4, r1, #4
 8003236:	2b00      	cmp	r3, #0
 8003238:	bfb8      	it	lt
 800323a:	18e4      	addlt	r4, r4, r3
 800323c:	f000 f8d2 	bl	80033e4 <__malloc_lock>
 8003240:	4a1f      	ldr	r2, [pc, #124]	; (80032c0 <_free_r+0x98>)
 8003242:	6813      	ldr	r3, [r2, #0]
 8003244:	4610      	mov	r0, r2
 8003246:	b933      	cbnz	r3, 8003256 <_free_r+0x2e>
 8003248:	6063      	str	r3, [r4, #4]
 800324a:	6014      	str	r4, [r2, #0]
 800324c:	4628      	mov	r0, r5
 800324e:	e8bd 4038 	ldmia.w	sp!, {r3, r4, r5, lr}
 8003252:	f000 b8c8 	b.w	80033e6 <__malloc_unlock>
 8003256:	42a3      	cmp	r3, r4
 8003258:	d90c      	bls.n	8003274 <_free_r+0x4c>
 800325a:	6821      	ldr	r1, [r4, #0]
 800325c:	1862      	adds	r2, r4, r1
 800325e:	4293      	cmp	r3, r2
 8003260:	bf04      	itt	eq
 8003262:	681a      	ldreq	r2, [r3, #0]
 8003264:	685b      	ldreq	r3, [r3, #4]
 8003266:	6063      	str	r3, [r4, #4]
 8003268:	bf04      	itt	eq
 800326a:	1852      	addeq	r2, r2, r1
 800326c:	6022      	streq	r2, [r4, #0]
 800326e:	6004      	str	r4, [r0, #0]
 8003270:	e7ec      	b.n	800324c <_free_r+0x24>
 8003272:	4613      	mov	r3, r2
 8003274:	685a      	ldr	r2, [r3, #4]
 8003276:	b10a      	cbz	r2, 800327c <_free_r+0x54>
 8003278:	42a2      	cmp	r2, r4
 800327a:	d9fa      	bls.n	8003272 <_free_r+0x4a>
 800327c:	6819      	ldr	r1, [r3, #0]
 800327e:	1858      	adds	r0, r3, r1
 8003280:	42a0      	cmp	r0, r4
 8003282:	d10b      	bne.n	800329c <_free_r+0x74>
 8003284:	6820      	ldr	r0, [r4, #0]
 8003286:	4401      	add	r1, r0
 8003288:	1858      	adds	r0, r3, r1
 800328a:	4282      	cmp	r2, r0
 800328c:	6019      	str	r1, [r3, #0]
 800328e:	d1dd      	bne.n	800324c <_free_r+0x24>
 8003290:	6810      	ldr	r0, [r2, #0]
 8003292:	6852      	ldr	r2, [r2, #4]
 8003294:	605a      	str	r2, [r3, #4]
 8003296:	4401      	add	r1, r0
 8003298:	6019      	str	r1, [r3, #0]
 800329a:	e7d7      	b.n	800324c <_free_r+0x24>
 800329c:	d902      	bls.n	80032a4 <_free_r+0x7c>
 800329e:	230c      	movs	r3, #12
 80032a0:	602b      	str	r3, [r5, #0]
 80032a2:	e7d3      	b.n	800324c <_free_r+0x24>
 80032a4:	6820      	ldr	r0, [r4, #0]
 80032a6:	1821      	adds	r1, r4, r0
 80032a8:	428a      	cmp	r2, r1
 80032aa:	bf04      	itt	eq
 80032ac:	6811      	ldreq	r1, [r2, #0]
 80032ae:	6852      	ldreq	r2, [r2, #4]
 80032b0:	6062      	str	r2, [r4, #4]
 80032b2:	bf04      	itt	eq
 80032b4:	1809      	addeq	r1, r1, r0
 80032b6:	6021      	streq	r1, [r4, #0]
 80032b8:	605c      	str	r4, [r3, #4]
 80032ba:	e7c7      	b.n	800324c <_free_r+0x24>
 80032bc:	bd38      	pop	{r3, r4, r5, pc}
 80032be:	bf00      	nop
 80032c0:	200000a0 	.word	0x200000a0

080032c4 <_malloc_r>:
 80032c4:	b570      	push	{r4, r5, r6, lr}
 80032c6:	1ccd      	adds	r5, r1, #3
 80032c8:	f025 0503 	bic.w	r5, r5, #3
 80032cc:	3508      	adds	r5, #8
 80032ce:	2d0c      	cmp	r5, #12
 80032d0:	bf38      	it	cc
 80032d2:	250c      	movcc	r5, #12
 80032d4:	2d00      	cmp	r5, #0
 80032d6:	4606      	mov	r6, r0
 80032d8:	db01      	blt.n	80032de <_malloc_r+0x1a>
 80032da:	42a9      	cmp	r1, r5
 80032dc:	d903      	bls.n	80032e6 <_malloc_r+0x22>
 80032de:	230c      	movs	r3, #12
 80032e0:	6033      	str	r3, [r6, #0]
 80032e2:	2000      	movs	r0, #0
 80032e4:	bd70      	pop	{r4, r5, r6, pc}
 80032e6:	f000 f87d 	bl	80033e4 <__malloc_lock>
 80032ea:	4a21      	ldr	r2, [pc, #132]	; (8003370 <_malloc_r+0xac>)
 80032ec:	6814      	ldr	r4, [r2, #0]
 80032ee:	4621      	mov	r1, r4
 80032f0:	b991      	cbnz	r1, 8003318 <_malloc_r+0x54>
 80032f2:	4c20      	ldr	r4, [pc, #128]	; (8003374 <_malloc_r+0xb0>)
 80032f4:	6823      	ldr	r3, [r4, #0]
 80032f6:	b91b      	cbnz	r3, 8003300 <_malloc_r+0x3c>
 80032f8:	4630      	mov	r0, r6
 80032fa:	f000 f863 	bl	80033c4 <_sbrk_r>
 80032fe:	6020      	str	r0, [r4, #0]
 8003300:	4629      	mov	r1, r5
 8003302:	4630      	mov	r0, r6
 8003304:	f000 f85e 	bl	80033c4 <_sbrk_r>
 8003308:	1c43      	adds	r3, r0, #1
 800330a:	d124      	bne.n	8003356 <_malloc_r+0x92>
 800330c:	230c      	movs	r3, #12
 800330e:	6033      	str	r3, [r6, #0]
 8003310:	4630      	mov	r0, r6
 8003312:	f000 f868 	bl	80033e6 <__malloc_unlock>
 8003316:	e7e4      	b.n	80032e2 <_malloc_r+0x1e>
 8003318:	680b      	ldr	r3, [r1, #0]
 800331a:	1b5b      	subs	r3, r3, r5
 800331c:	d418      	bmi.n	8003350 <_malloc_r+0x8c>
 800331e:	2b0b      	cmp	r3, #11
 8003320:	d90f      	bls.n	8003342 <_malloc_r+0x7e>
 8003322:	600b      	str	r3, [r1, #0]
 8003324:	50cd      	str	r5, [r1, r3]
 8003326:	18cc      	adds	r4, r1, r3
 8003328:	4630      	mov	r0, r6
 800332a:	f000 f85c 	bl	80033e6 <__malloc_unlock>
 800332e:	f104 000b 	add.w	r0, r4, #11
 8003332:	1d23      	adds	r3, r4, #4
 8003334:	f020 0007 	bic.w	r0, r0, #7
 8003338:	1ac3      	subs	r3, r0, r3
 800333a:	d0d3      	beq.n	80032e4 <_malloc_r+0x20>
 800333c:	425a      	negs	r2, r3
 800333e:	50e2      	str	r2, [r4, r3]
 8003340:	e7d0      	b.n	80032e4 <_malloc_r+0x20>
 8003342:	428c      	cmp	r4, r1
 8003344:	684b      	ldr	r3, [r1, #4]
 8003346:	bf16      	itet	ne
 8003348:	6063      	strne	r3, [r4, #4]
 800334a:	6013      	streq	r3, [r2, #0]
 800334c:	460c      	movne	r4, r1
 800334e:	e7eb      	b.n	8003328 <_malloc_r+0x64>
 8003350:	460c      	mov	r4, r1
 8003352:	6849      	ldr	r1, [r1, #4]
 8003354:	e7cc      	b.n	80032f0 <_malloc_r+0x2c>
 8003356:	1cc4      	adds	r4, r0, #3
 8003358:	f024 0403 	bic.w	r4, r4, #3
 800335c:	42a0      	cmp	r0, r4
 800335e:	d005      	beq.n	800336c <_malloc_r+0xa8>
 8003360:	1a21      	subs	r1, r4, r0
 8003362:	4630      	mov	r0, r6
 8003364:	f000 f82e 	bl	80033c4 <_sbrk_r>
 8003368:	3001      	adds	r0, #1
 800336a:	d0cf      	beq.n	800330c <_malloc_r+0x48>
 800336c:	6025      	str	r5, [r4, #0]
 800336e:	e7db      	b.n	8003328 <_malloc_r+0x64>
 8003370:	200000a0 	.word	0x200000a0
 8003374:	200000a4 	.word	0x200000a4

08003378 <_realloc_r>:
 8003378:	b5f8      	push	{r3, r4, r5, r6, r7, lr}
 800337a:	4607      	mov	r7, r0
 800337c:	4614      	mov	r4, r2
 800337e:	460e      	mov	r6, r1
 8003380:	b921      	cbnz	r1, 800338c <_realloc_r+0x14>
 8003382:	4611      	mov	r1, r2
 8003384:	e8bd 40f8 	ldmia.w	sp!, {r3, r4, r5, r6, r7, lr}
 8003388:	f7ff bf9c 	b.w	80032c4 <_malloc_r>
 800338c:	b922      	cbnz	r2, 8003398 <_realloc_r+0x20>
 800338e:	f7ff ff4b 	bl	8003228 <_free_r>
 8003392:	4625      	mov	r5, r4
 8003394:	4628      	mov	r0, r5
 8003396:	bdf8      	pop	{r3, r4, r5, r6, r7, pc}
 8003398:	f000 f826 	bl	80033e8 <_malloc_usable_size_r>
 800339c:	42a0      	cmp	r0, r4
 800339e:	d20f      	bcs.n	80033c0 <_realloc_r+0x48>
 80033a0:	4621      	mov	r1, r4
 80033a2:	4638      	mov	r0, r7
 80033a4:	f7ff ff8e 	bl	80032c4 <_malloc_r>
 80033a8:	4605      	mov	r5, r0
 80033aa:	2800      	cmp	r0, #0
 80033ac:	d0f2      	beq.n	8003394 <_realloc_r+0x1c>
 80033ae:	4631      	mov	r1, r6
 80033b0:	4622      	mov	r2, r4
 80033b2:	f7ff ff15 	bl	80031e0 <memcpy>
 80033b6:	4631      	mov	r1, r6
 80033b8:	4638      	mov	r0, r7
 80033ba:	f7ff ff35 	bl	8003228 <_free_r>
 80033be:	e7e9      	b.n	8003394 <_realloc_r+0x1c>
 80033c0:	4635      	mov	r5, r6
 80033c2:	e7e7      	b.n	8003394 <_realloc_r+0x1c>

080033c4 <_sbrk_r>:
 80033c4:	b538      	push	{r3, r4, r5, lr}
 80033c6:	4c06      	ldr	r4, [pc, #24]	; (80033e0 <_sbrk_r+0x1c>)
 80033c8:	2300      	movs	r3, #0
 80033ca:	4605      	mov	r5, r0
 80033cc:	4608      	mov	r0, r1
 80033ce:	6023      	str	r3, [r4, #0]
 80033d0:	f7fd fc24 	bl	8000c1c <_sbrk>
 80033d4:	1c43      	adds	r3, r0, #1
 80033d6:	d102      	bne.n	80033de <_sbrk_r+0x1a>
 80033d8:	6823      	ldr	r3, [r4, #0]
 80033da:	b103      	cbz	r3, 80033de <_sbrk_r+0x1a>
 80033dc:	602b      	str	r3, [r5, #0]
 80033de:	bd38      	pop	{r3, r4, r5, pc}
 80033e0:	2000603c 	.word	0x2000603c

080033e4 <__malloc_lock>:
 80033e4:	4770      	bx	lr

080033e6 <__malloc_unlock>:
 80033e6:	4770      	bx	lr

080033e8 <_malloc_usable_size_r>:
 80033e8:	f851 3c04 	ldr.w	r3, [r1, #-4]
 80033ec:	1f18      	subs	r0, r3, #4
 80033ee:	2b00      	cmp	r3, #0
 80033f0:	bfbc      	itt	lt
 80033f2:	580b      	ldrlt	r3, [r1, r0]
 80033f4:	18c0      	addlt	r0, r0, r3
 80033f6:	4770      	bx	lr

080033f8 <_init>:
 80033f8:	b5f8      	push	{r3, r4, r5, r6, r7, lr}
 80033fa:	bf00      	nop
 80033fc:	bcf8      	pop	{r3, r4, r5, r6, r7}
 80033fe:	bc08      	pop	{r3}
 8003400:	469e      	mov	lr, r3
 8003402:	4770      	bx	lr

08003404 <_fini>:
 8003404:	b5f8      	push	{r3, r4, r5, r6, r7, lr}
 8003406:	bf00      	nop
 8003408:	bcf8      	pop	{r3, r4, r5, r6, r7}
 800340a:	bc08      	pop	{r3}
 800340c:	469e      	mov	lr, r3
 800340e:	4770      	bx	lr
